	.text
	.def	@feat.00;
	.scl	3;
	.type	0;
	.endef
	.globl	@feat.00
.set @feat.00, 0
	.file	"concurrent.9e72aba57e29b0ef-cgu.0"
	.def	_ZN3std10sys_common9backtrace28__rust_begin_short_backtrace17h1dfde16f70fbdb20E;
	.scl	3;
	.type	32;
	.endef
	.section	.text,"xr",one_only,_ZN3std10sys_common9backtrace28__rust_begin_short_backtrace17h1dfde16f70fbdb20E
	.p2align	4, 0x90
_ZN3std10sys_common9backtrace28__rust_begin_short_backtrace17h1dfde16f70fbdb20E:
.Lfunc_begin0:
	.cv_func_id 0
	.cv_file	1 "E:\\work\\learn\\rust_learn\\concurrent\\src\\main.rs" "8160E90B99A605AE41504873D83F0854D6A787FE" 2
	.cv_file	2 "/rustc/5680fa18feaa87f3ff04063800aec256c3d4b4be\\library\\std\\src\\sys_common\\backtrace.rs" "2CAE7C83395163C2085CAFDFC9AE9957D5599019" 2
	.cv_inline_site_id 1 within 0 inlined_at 2 135 0
	.cv_loc	1 1 29 0
	movb	$1, _ZN10concurrent4DATA17h12318adf91d9460fE.0(%rip)
.Ltmp0:
	.cv_file	3 "/rustc/5680fa18feaa87f3ff04063800aec256c3d4b4be\\library\\core\\src\\sync\\atomic.rs" "8E8DC8784090C0E2AC297D3E2EDBD90D77E01761" 2
	.cv_inline_site_id 2 within 1 inlined_at 1 31 0
	.cv_inline_site_id 3 within 2 inlined_at 3 527 0
	.cv_loc	3 3 3139 0
	movb	$1, _ZN10concurrent5READY17ha9d70e9a654afec8E.0(%rip)
.Ltmp1:
	.cv_file	4 "/rustc/5680fa18feaa87f3ff04063800aec256c3d4b4be\\library\\core\\src\\hint.rs" "3463A32FA9F2CFDA2D03B65CB0EB99F3E893F8C0" 2
	.cv_inline_site_id 4 within 0 inlined_at 2 138 0
	.cv_loc	4 4 293 0
	#APP
	#NO_APP
.Ltmp2:
	.cv_loc	0 2 141 0
	retq
.Ltmp3:
.Lfunc_end0:

	.def	_ZN3std10sys_common9backtrace28__rust_begin_short_backtrace17h783102f2ba7e19acE;
	.scl	3;
	.type	32;
	.endef
	.section	.text,"xr",one_only,_ZN3std10sys_common9backtrace28__rust_begin_short_backtrace17h783102f2ba7e19acE
	.p2align	4, 0x90
_ZN3std10sys_common9backtrace28__rust_begin_short_backtrace17h783102f2ba7e19acE:
.Lfunc_begin1:
	.cv_func_id 5
	.cv_loc	5 2 131 0
.seh_proc _ZN3std10sys_common9backtrace28__rust_begin_short_backtrace17h783102f2ba7e19acE
	subq	$88, %rsp
	.seh_stackalloc 88
	.seh_endprologue
.Ltmp4:
	.p2align	4, 0x90
.LBB1_1:
	.cv_inline_site_id 6 within 5 inlined_at 2 135 0
	.cv_inline_site_id 7 within 6 inlined_at 1 37 0
	.cv_inline_site_id 8 within 7 inlined_at 3 498 0
	.cv_loc	8 3 3154 0
	movzbl	_ZN10concurrent5READY17ha9d70e9a654afec8E.0(%rip), %eax
.Ltmp5:
	.cv_loc	7 3 498 0
	testb	%al, %al
.Ltmp6:
	.cv_loc	6 1 37 0
	je	.LBB1_1
.Ltmp7:
	.cv_loc	6 1 39 0
	xorl	%eax, %eax
	cmpb	$0, _ZN10concurrent4DATA17h12318adf91d9460fE.0(%rip)
	movl	$100, %ecx
	cmoveq	%rax, %rcx
	movq	%rcx, 32(%rsp)
.Ltmp8:
	.cv_loc	6 1 39 0
	je	.LBB1_3
.Ltmp9:
	.cv_inline_site_id 9 within 5 inlined_at 2 138 0
	.cv_loc	9 4 293 0
	#APP
	#NO_APP
.Ltmp10:
	.cv_loc	5 2 141 0
	addq	$88, %rsp
	retq
.LBB1_3:
.Ltmp11:
	.cv_loc	6 1 39 0
	movq	$0, 40(%rsp)
	leaq	32(%rsp), %rcx
	leaq	40(%rsp), %rdx
	callq	_ZN4core9panicking13assert_failed17h4aad53dee22165acE
	ud2
.Ltmp12:
.Lfunc_end1:
	.seh_endproc

	.def	_ZN3std10sys_common9backtrace28__rust_begin_short_backtrace17hddef8c0047251968E;
	.scl	3;
	.type	32;
	.endef
	.section	.text,"xr",one_only,_ZN3std10sys_common9backtrace28__rust_begin_short_backtrace17hddef8c0047251968E
	.p2align	4, 0x90
_ZN3std10sys_common9backtrace28__rust_begin_short_backtrace17hddef8c0047251968E:
.Lfunc_begin2:
	.cv_func_id 10
	.cv_loc	10 2 131 0
.seh_proc _ZN3std10sys_common9backtrace28__rust_begin_short_backtrace17hddef8c0047251968E
	subq	$40, %rsp
	.seh_stackalloc 40
	.seh_endprologue
.Ltmp13:
	.cv_file	5 "/rustc/5680fa18feaa87f3ff04063800aec256c3d4b4be\\library\\core\\src\\ops\\function.rs" "C5AFFE11ABB5FEEB7E7AF41EF6225BF22E2661D6" 2
	.cv_inline_site_id 11 within 10 inlined_at 2 135 0
	.cv_loc	11 5 250 0
	callq	*%rcx
.Ltmp14:
	.cv_inline_site_id 12 within 10 inlined_at 2 138 0
	.cv_loc	12 4 293 0
	#APP
	#NO_APP
.Ltmp15:
	.cv_loc	10 2 141 0
	nop
	addq	$40, %rsp
	retq
.Ltmp16:
.Lfunc_end2:
	.seh_endproc

	.def	_ZN3std2io5Write9write_fmt17hbbccc63080fa1097E;
	.scl	3;
	.type	32;
	.endef
	.section	.text,"xr",one_only,_ZN3std2io5Write9write_fmt17hbbccc63080fa1097E
	.p2align	4, 0x90
_ZN3std2io5Write9write_fmt17hbbccc63080fa1097E:
.Lfunc_begin3:
	.cv_func_id 13
	.cv_file	6 "/rustc/5680fa18feaa87f3ff04063800aec256c3d4b4be\\library\\std\\src\\io\\mod.rs" "D21B079B171326FBE4085FFF519341D4E0C12BDF" 2
	.cv_loc	13 6 1693 0
.seh_proc _ZN3std2io5Write9write_fmt17hbbccc63080fa1097E
	.seh_handler __CxxFrameHandler3, @unwind, @except
	pushq	%rbp
	.seh_pushreg %rbp
.Ltmp21:
	pushq	%rsi
	.seh_pushreg %rsi
	pushq	%rbx
	.seh_pushreg %rbx
	subq	$128, %rsp
	.seh_stackalloc 128
	leaq	128(%rsp), %rbp
	.seh_setframe %rbp, 128
	.seh_endprologue
	.cv_loc	13 6 1713 0
	movq	$-2, -8(%rbp)
	movq	%rcx, -48(%rbp)
	movq	$0, -40(%rbp)
.Ltmp22:
	.cv_loc	13 6 1714 0
	movups	(%rdx), %xmm0
	movups	16(%rdx), %xmm1
	movups	32(%rdx), %xmm2
	movaps	%xmm2, -64(%rbp)
	movaps	%xmm1, -80(%rbp)
	movaps	%xmm0, -96(%rbp)
.Ltmp17:
	leaq	__unnamed_1(%rip), %rdx
.Ltmp23:
	leaq	-48(%rbp), %rcx
.Ltmp24:
	leaq	-96(%rbp), %r8
	callq	_ZN4core3fmt5write17h1f35b1184ff0f480E
.Ltmp18:
.Ltmp25:
	movl	%eax, %ebx
	movq	-40(%rbp), %rsi
	testq	%rsi, %rsi
	setne	%al
.Ltmp26:
	.cv_loc	13 6 1725 0
	testb	%al, %bl
	jne	.LBB3_9
.Ltmp27:
	testq	%rsi, %rsi
	je	.LBB3_9
.Ltmp28:
	.cv_file	7 "/rustc/5680fa18feaa87f3ff04063800aec256c3d4b4be\\library\\std\\src\\io\\error\\repr_bitpacked.rs" "ED1F6071BFAF102BDF5D2DAD2576AB4B4393DDA5" 2
	.cv_inline_site_id 14 within 13 inlined_at 6 1725 0
	.cv_file	8 "/rustc/5680fa18feaa87f3ff04063800aec256c3d4b4be\\library\\core\\src\\ptr\\mod.rs" "5AC03A9B6A612EDCA1F0B1C41C219ADE2B1BFA38" 2
	.cv_inline_site_id 15 within 14 inlined_at 8 497 0
	.cv_inline_site_id 16 within 15 inlined_at 8 497 0
	.cv_inline_site_id 17 within 16 inlined_at 8 497 0
	.cv_inline_site_id 18 within 17 inlined_at 7 236 0
	.cv_loc	18 7 251 0
	movl	%esi, %eax
	andl	$3, %eax
	leaq	-2(%rax), %rcx
	cmpq	$2, %rcx
	jb	.LBB3_9
.Ltmp29:
	testq	%rax, %rax
	je	.LBB3_9
.Ltmp30:
	.cv_file	9 "/rustc/5680fa18feaa87f3ff04063800aec256c3d4b4be\\library\\core\\src\\ptr\\mut_ptr.rs" "DCB5809846111B591217499336EA2E9D054418B2" 2
	.cv_inline_site_id 19 within 18 inlined_at 7 275 0
	.cv_inline_site_id 20 within 19 inlined_at 9 1280 0
	.cv_inline_site_id 21 within 20 inlined_at 9 1262 0
	.cv_loc	21 9 558 0
	leaq	-1(%rsi), %rax
.Ltmp31:
	movq	%rax, -32(%rbp)
.Ltmp32:
	.cv_inline_site_id 22 within 17 inlined_at 7 236 0
	.cv_inline_site_id 23 within 22 inlined_at 8 497 0
	.cv_loc	23 8 497 0
	movq	-1(%rsi), %rcx
	movq	7(%rsi), %rax
.Ltmp33:
	.cv_inline_site_id 24 within 23 inlined_at 8 497 0
	.cv_inline_site_id 25 within 24 inlined_at 8 497 0
	.cv_loc	25 8 497 0
.Ltmp19:
	movq	%rcx, -16(%rbp)
	movq	%rax, -24(%rbp)
.Ltmp34:
	callq	*(%rax)
.Ltmp20:
.Ltmp35:
	.cv_file	10 "/rustc/5680fa18feaa87f3ff04063800aec256c3d4b4be\\library\\core\\src\\mem\\mod.rs" "DDBFB36EC19B0C3183F7B96DED48AE51281C4982" 2
	.cv_inline_site_id 26 within 25 inlined_at 8 497 0
	.cv_file	11 "/rustc/5680fa18feaa87f3ff04063800aec256c3d4b4be\\library\\alloc\\src\\boxed.rs" "F487A4131108E82441A773363044FD15F3EEDF73" 2
	.cv_inline_site_id 27 within 26 inlined_at 11 1221 0
	.cv_file	12 "/rustc/5680fa18feaa87f3ff04063800aec256c3d4b4be\\library\\core\\src\\alloc\\layout.rs" "BFD98B80BB89E7FAE070FCEF1DCBB35C0011A941" 2
	.cv_inline_site_id 28 within 27 inlined_at 12 199 0
	.cv_loc	28 10 394 0
	movq	-24(%rbp), %rax
.Ltmp36:
	movq	8(%rax), %rdx
.Ltmp37:
	.cv_file	13 "/rustc/5680fa18feaa87f3ff04063800aec256c3d4b4be\\library\\alloc\\src\\alloc.rs" "59E87007895AF32A7B54D7FF1725F4BD7C213AC1" 2
	.cv_inline_site_id 29 within 26 inlined_at 11 1222 0
	.cv_loc	29 13 255 0
	testq	%rdx, %rdx
	je	.LBB3_8
.Ltmp38:
	.cv_inline_site_id 30 within 29 inlined_at 13 258 0
	.cv_loc	30 13 121 0
	movq	16(%rax), %r8
.Ltmp39:
	movq	-16(%rbp), %rcx
.Ltmp40:
	callq	__rust_dealloc
.Ltmp41:
.LBB3_8:
	.cv_inline_site_id 31 within 23 inlined_at 8 497 0
	.cv_inline_site_id 32 within 31 inlined_at 11 1222 0
	.cv_inline_site_id 33 within 32 inlined_at 13 258 0
	.cv_loc	33 13 121 0
	movl	$24, %edx
	movl	$8, %r8d
	movq	-32(%rbp), %rcx
	callq	__rust_dealloc
.Ltmp42:
.LBB3_9:
	.cv_loc	13 6 1714 0
	testq	%rsi, %rsi
	leaq	__unnamed_2(%rip), %rcx
	cmovneq	%rsi, %rcx
	xorl	%eax, %eax
	testb	%bl, %bl
	cmovneq	%rcx, %rax
.Ltmp43:
	.cv_loc	13 6 1725 0
	addq	$128, %rsp
	popq	%rbx
	popq	%rsi
	popq	%rbp
	retq
.Ltmp44:
	.seh_handlerdata
	.long	($cppxdata$_ZN3std2io5Write9write_fmt17hbbccc63080fa1097E)@IMGREL
	.section	.text,"xr",one_only,_ZN3std2io5Write9write_fmt17hbbccc63080fa1097E
	.seh_endproc
	.def	"?dtor$10@?0?_ZN3std2io5Write9write_fmt17hbbccc63080fa1097E@4HA";
	.scl	3;
	.type	32;
	.endef
	.p2align	4, 0x90
"?dtor$10@?0?_ZN3std2io5Write9write_fmt17hbbccc63080fa1097E@4HA":
.seh_proc "?dtor$10@?0?_ZN3std2io5Write9write_fmt17hbbccc63080fa1097E@4HA"
.LBB3_10:
	movq	%rdx, 16(%rsp)
	pushq	%rbp
	.seh_pushreg %rbp
	pushq	%rsi
	.seh_pushreg %rsi
	pushq	%rbx
	.seh_pushreg %rbx
	subq	$32, %rsp
	.seh_stackalloc 32
	leaq	128(%rdx), %rbp
	.seh_endprologue
	movq	-16(%rbp), %rcx
	movq	-24(%rbp), %rdx
.Ltmp45:
	.cv_loc	25 8 497 0
	callq	_ZN72_$LT$alloc..boxed..Box$LT$T$C$A$GT$$u20$as$u20$core..ops..drop..Drop$GT$4drop17h6741ce1b38ae4f6bE
	movq	-32(%rbp), %rcx
.Ltmp46:
	.cv_loc	23 8 497 0
	callq	_ZN72_$LT$alloc..boxed..Box$LT$T$C$A$GT$$u20$as$u20$core..ops..drop..Drop$GT$4drop17h37c1f7c24bbbad40E
	nop
	addq	$32, %rsp
	popq	%rbx
	popq	%rsi
	popq	%rbp
	retq
.Ltmp47:
	.seh_handlerdata
	.section	.text,"xr",one_only,_ZN3std2io5Write9write_fmt17hbbccc63080fa1097E
	.seh_endproc
	.def	"?dtor$11@?0?_ZN3std2io5Write9write_fmt17hbbccc63080fa1097E@4HA";
	.scl	3;
	.type	32;
	.endef
	.p2align	4, 0x90
"?dtor$11@?0?_ZN3std2io5Write9write_fmt17hbbccc63080fa1097E@4HA":
.seh_proc "?dtor$11@?0?_ZN3std2io5Write9write_fmt17hbbccc63080fa1097E@4HA"
.LBB3_11:
	movq	%rdx, 16(%rsp)
	pushq	%rbp
	.seh_pushreg %rbp
	pushq	%rsi
	.seh_pushreg %rsi
	pushq	%rbx
	.seh_pushreg %rbx
	subq	$32, %rsp
	.seh_stackalloc 32
	leaq	128(%rdx), %rbp
	.seh_endprologue
	leaq	-48(%rbp), %rcx
	.cv_loc	13 6 1725 0
	callq	_ZN4core3ptr95drop_in_place$LT$std..io..Write..write_fmt..Adapter$LT$std..sys..windows..stdio..Stderr$GT$$GT$17hd2dd8c8ab9fff3f7E
	.cv_loc	13 6 1693 0
	nop
	addq	$32, %rsp
	popq	%rbx
	popq	%rsi
	popq	%rbp
	retq
.Ltmp48:
.Lfunc_end3:
	.seh_handlerdata
	.section	.text,"xr",one_only,_ZN3std2io5Write9write_fmt17hbbccc63080fa1097E
	.seh_endproc
	.section	.xdata,"dr",associative,_ZN3std2io5Write9write_fmt17hbbccc63080fa1097E
	.p2align	2, 0x0
$cppxdata$_ZN3std2io5Write9write_fmt17hbbccc63080fa1097E:
	.long	429065506
	.long	2
	.long	($stateUnwindMap$_ZN3std2io5Write9write_fmt17hbbccc63080fa1097E)@IMGREL
	.long	0
	.long	0
	.long	4
	.long	($ip2state$_ZN3std2io5Write9write_fmt17hbbccc63080fa1097E)@IMGREL
	.long	120
	.long	0
	.long	1
$stateUnwindMap$_ZN3std2io5Write9write_fmt17hbbccc63080fa1097E:
	.long	-1
	.long	"?dtor$11@?0?_ZN3std2io5Write9write_fmt17hbbccc63080fa1097E@4HA"@IMGREL
	.long	-1
	.long	"?dtor$10@?0?_ZN3std2io5Write9write_fmt17hbbccc63080fa1097E@4HA"@IMGREL
$ip2state$_ZN3std2io5Write9write_fmt17hbbccc63080fa1097E:
	.long	.Lfunc_begin3@IMGREL
	.long	-1
	.long	.Ltmp17@IMGREL+1
	.long	0
	.long	.Ltmp19@IMGREL+1
	.long	1
	.long	.Ltmp20@IMGREL+1
	.long	-1
	.section	.text,"xr",one_only,_ZN3std2io5Write9write_fmt17hbbccc63080fa1097E

	.def	_ZN3std2rt10lang_start17h356646a54d1a07e6E;
	.scl	2;
	.type	32;
	.endef
	.section	.text,"xr",one_only,_ZN3std2rt10lang_start17h356646a54d1a07e6E
	.globl	_ZN3std2rt10lang_start17h356646a54d1a07e6E
	.p2align	4, 0x90
_ZN3std2rt10lang_start17h356646a54d1a07e6E:
.Lfunc_begin4:
	.cv_func_id 34
	.cv_file	14 "/rustc/5680fa18feaa87f3ff04063800aec256c3d4b4be\\library\\std\\src\\rt.rs" "B988B2AB3B2E72DEA75756F8BF62934FD856EAA7" 2
	.cv_loc	34 14 159 0
.seh_proc _ZN3std2rt10lang_start17h356646a54d1a07e6E
	subq	$56, %rsp
	.seh_stackalloc 56
	.seh_endprologue
	movq	%r8, %rax
	movq	%rdx, %r8
.Ltmp49:
	.cv_loc	34 14 166 0
	movq	%rcx, 48(%rsp)
	.cv_loc	34 14 165 0
	movb	%r9b, 32(%rsp)
	leaq	__unnamed_3(%rip), %rdx
.Ltmp50:
	leaq	48(%rsp), %rcx
.Ltmp51:
	movq	%rax, %r9
.Ltmp52:
	callq	_ZN3std2rt19lang_start_internal17h0386057d0589e4c8E
.Ltmp53:
	.cv_loc	34 14 172 0
	nop
	addq	$56, %rsp
	retq
.Ltmp54:
.Lfunc_end4:
	.seh_endproc

	.def	_ZN3std2rt10lang_start28_$u7b$$u7b$closure$u7d$$u7d$17hfbb0f6deb8d70932E;
	.scl	3;
	.type	32;
	.endef
	.section	.text,"xr",one_only,_ZN3std2rt10lang_start28_$u7b$$u7b$closure$u7d$$u7d$17hfbb0f6deb8d70932E
	.p2align	4, 0x90
_ZN3std2rt10lang_start28_$u7b$$u7b$closure$u7d$$u7d$17hfbb0f6deb8d70932E:
.Lfunc_begin5:
	.cv_func_id 35
	.cv_loc	35 14 166 0
.seh_proc _ZN3std2rt10lang_start28_$u7b$$u7b$closure$u7d$$u7d$17hfbb0f6deb8d70932E
	subq	$40, %rsp
	.seh_stackalloc 40
	.seh_endprologue
.Ltmp55:
	movq	(%rcx), %rcx
.Ltmp56:
	callq	_ZN3std10sys_common9backtrace28__rust_begin_short_backtrace17hddef8c0047251968E
	xorl	%eax, %eax
	addq	$40, %rsp
	retq
.Ltmp57:
.Lfunc_end5:
	.seh_endproc

	.def	_ZN42_$LT$$RF$T$u20$as$u20$core..fmt..Debug$GT$3fmt17h06135e02c82c3eb7E;
	.scl	3;
	.type	32;
	.endef
	.section	.text,"xr",one_only,_ZN42_$LT$$RF$T$u20$as$u20$core..fmt..Debug$GT$3fmt17h06135e02c82c3eb7E
	.p2align	4, 0x90
_ZN42_$LT$$RF$T$u20$as$u20$core..fmt..Debug$GT$3fmt17h06135e02c82c3eb7E:
.Lfunc_begin6:
	.cv_func_id 36
	.cv_file	15 "/rustc/5680fa18feaa87f3ff04063800aec256c3d4b4be\\library\\core\\src\\fmt\\mod.rs" "0E7AC46942D65DF9F0D4BC3EB77BB1395822E453" 2
	.cv_loc	36 15 2268 0
.seh_proc _ZN42_$LT$$RF$T$u20$as$u20$core..fmt..Debug$GT$3fmt17h06135e02c82c3eb7E
	pushq	%rsi
	.seh_pushreg %rsi
	pushq	%rdi
	.seh_pushreg %rdi
	subq	$40, %rsp
	.seh_stackalloc 40
	.seh_endprologue
	movq	%rdx, %rsi
.Ltmp58:
	movq	(%rcx), %rdi
.Ltmp59:
	.cv_file	16 "/rustc/5680fa18feaa87f3ff04063800aec256c3d4b4be\\library\\core\\src\\fmt\\num.rs" "B6EDB9EE1B2DB44B637FE91DA0527A4926D6DB15" 2
	.cv_inline_site_id 37 within 36 inlined_at 15 2268 0
	.cv_loc	37 16 190 0
	movq	%rdx, %rcx
.Ltmp60:
	callq	_ZN4core3fmt9Formatter15debug_lower_hex17h9edc1ddb7b581be6E
.Ltmp61:
	testb	%al, %al
	je	.LBB6_1
.Ltmp62:
	.cv_loc	37 16 191 0
	movq	%rdi, %rcx
	movq	%rsi, %rdx
	addq	$40, %rsp
	popq	%rdi
.Ltmp63:
	popq	%rsi
.Ltmp64:
	jmp	_ZN4core3fmt3num53_$LT$impl$u20$core..fmt..LowerHex$u20$for$u20$u64$GT$3fmt17hf19e2b7a947a0b7eE
.Ltmp65:
.LBB6_1:
	.cv_loc	37 16 192 0
	movq	%rsi, %rcx
	callq	_ZN4core3fmt9Formatter15debug_upper_hex17h80c8a53e7a03fc9cE
	.cv_loc	37 16 195 0
	movq	%rdi, %rcx
	movq	%rsi, %rdx
	.cv_loc	37 16 192 0
	testb	%al, %al
	je	.LBB6_4
.Ltmp66:
	.cv_loc	37 16 193 0
	addq	$40, %rsp
	popq	%rdi
.Ltmp67:
	popq	%rsi
.Ltmp68:
	jmp	_ZN4core3fmt3num53_$LT$impl$u20$core..fmt..UpperHex$u20$for$u20$u64$GT$3fmt17h02acc20cf4b4fcbbE
.Ltmp69:
.LBB6_4:
	.cv_loc	37 16 195 0
	nop
	addq	$40, %rsp
	popq	%rdi
.Ltmp70:
	popq	%rsi
.Ltmp71:
	jmp	_ZN4core3fmt3num3imp52_$LT$impl$u20$core..fmt..Display$u20$for$u20$u64$GT$3fmt17ha75d265e6c0c0809E
.Ltmp72:
.Lfunc_end6:
	.seh_endproc

	.def	_ZN4core3fmt5Write10write_char17h60e4a05055518aa7E;
	.scl	3;
	.type	32;
	.endef
	.section	.text,"xr",one_only,_ZN4core3fmt5Write10write_char17h60e4a05055518aa7E
	.p2align	4, 0x90
_ZN4core3fmt5Write10write_char17h60e4a05055518aa7E:
.Lfunc_begin7:
	.cv_func_id 38
	.cv_loc	38 15 163 0
.seh_proc _ZN4core3fmt5Write10write_char17h60e4a05055518aa7E
	subq	$40, %rsp
	.seh_stackalloc 40
	.seh_endprologue
.Ltmp73:
	.cv_loc	38 15 164 0
	movl	$0, 36(%rsp)
.Ltmp74:
	.cv_file	17 "/rustc/5680fa18feaa87f3ff04063800aec256c3d4b4be\\library\\core\\src\\char\\methods.rs" "3A874893DA3ECEE1D8AC046A46440ADB48B2E283" 2
	.cv_inline_site_id 39 within 38 inlined_at 15 164 0
	.cv_inline_site_id 40 within 39 inlined_at 17 633 0
	.cv_inline_site_id 41 within 40 inlined_at 17 1718 0
	.cv_loc	41 17 1690 0
	cmpl	$128, %edx
	jae	.LBB7_1
.Ltmp75:
	.cv_loc	40 17 1721 0
	movb	%dl, 36(%rsp)
	movl	$1, %r8d
	jmp	.LBB7_7
.Ltmp76:
.LBB7_1:
	.cv_loc	40 17 1724 0
	movl	%edx, %eax
.Ltmp77:
	.cv_loc	41 17 1692 0
	cmpl	$2048, %edx
	jae	.LBB7_2
.Ltmp78:
	.cv_loc	40 17 1724 0
	shrl	$6, %eax
	orb	$-64, %al
	movb	%al, 36(%rsp)
	.cv_loc	40 17 1725 0
	andb	$63, %dl
.Ltmp79:
	orb	$-128, %dl
	movb	%dl, 37(%rsp)
	movl	$2, %r8d
	jmp	.LBB7_7
.Ltmp80:
.LBB7_2:
	.cv_loc	41 17 1694 0
	cmpl	$65536, %edx
	jae	.LBB7_6
.Ltmp81:
	.cv_loc	40 17 1728 0
	shrl	$12, %eax
	orb	$-32, %al
	movb	%al, 36(%rsp)
	.cv_loc	40 17 1729 0
	movl	%edx, %eax
	shrl	$6, %eax
	andb	$63, %al
	orb	$-128, %al
	movb	%al, 37(%rsp)
	.cv_loc	40 17 1730 0
	andb	$63, %dl
.Ltmp82:
	orb	$-128, %dl
	movb	%dl, 38(%rsp)
	movl	$3, %r8d
	jmp	.LBB7_7
.Ltmp83:
.LBB7_6:
	.cv_loc	40 17 1733 0
	shrl	$18, %eax
	andb	$7, %al
	orb	$-16, %al
	movb	%al, 36(%rsp)
	.cv_loc	40 17 1734 0
	movl	%edx, %eax
	shrl	$12, %eax
	andb	$63, %al
	orb	$-128, %al
	movb	%al, 37(%rsp)
	.cv_loc	40 17 1735 0
	movl	%edx, %eax
	shrl	$6, %eax
	andb	$63, %al
	orb	$-128, %al
	movb	%al, 38(%rsp)
	.cv_loc	40 17 1736 0
	andb	$63, %dl
.Ltmp84:
	orb	$-128, %dl
	movb	%dl, 39(%rsp)
	movl	$4, %r8d
.Ltmp85:
.LBB7_7:
	.cv_loc	38 15 164 0
	leaq	36(%rsp), %rdx
	callq	_ZN80_$LT$std..io..Write..write_fmt..Adapter$LT$T$GT$$u20$as$u20$core..fmt..Write$GT$9write_str17hbbc4030ac5d6d221E
.Ltmp86:
	.cv_loc	38 15 165 0
	nop
	addq	$40, %rsp
	retq
.Ltmp87:
.Lfunc_end7:
	.seh_endproc

	.def	_ZN4core3fmt5Write9write_fmt17hb0337131e1841832E;
	.scl	3;
	.type	32;
	.endef
	.section	.text,"xr",one_only,_ZN4core3fmt5Write9write_fmt17hb0337131e1841832E
	.p2align	4, 0x90
_ZN4core3fmt5Write9write_fmt17hb0337131e1841832E:
.Lfunc_begin8:
	.cv_func_id 42
	.cv_loc	42 15 191 0
.seh_proc _ZN4core3fmt5Write9write_fmt17hb0337131e1841832E
	subq	$104, %rsp
	.seh_stackalloc 104
	.seh_endprologue
	movq	%rcx, 40(%rsp)
.Ltmp88:
	.cv_loc	42 15 192 0
	movups	(%rdx), %xmm0
	movups	16(%rdx), %xmm1
	movups	32(%rdx), %xmm2
	movaps	%xmm2, 80(%rsp)
	movaps	%xmm1, 64(%rsp)
	movaps	%xmm0, 48(%rsp)
.Ltmp89:
	leaq	__unnamed_4(%rip), %rdx
.Ltmp90:
	leaq	40(%rsp), %rcx
	leaq	48(%rsp), %r8
	callq	_ZN4core3fmt5write17h1f35b1184ff0f480E
	.cv_loc	42 15 193 0
	nop
	addq	$104, %rsp
	retq
.Ltmp91:
.Lfunc_end8:
	.seh_endproc

	.def	_ZN4core3ops8function6FnOnce40call_once$u7b$$u7b$vtable.shim$u7d$$u7d$17h143bdd5b2edae680E;
	.scl	3;
	.type	32;
	.endef
	.section	.text,"xr",one_only,_ZN4core3ops8function6FnOnce40call_once$u7b$$u7b$vtable.shim$u7d$$u7d$17h143bdd5b2edae680E
	.p2align	4, 0x90
_ZN4core3ops8function6FnOnce40call_once$u7b$$u7b$vtable.shim$u7d$$u7d$17h143bdd5b2edae680E:
.Lfunc_begin9:
	.cv_func_id 43
	.cv_loc	43 5 250 0
.seh_proc _ZN4core3ops8function6FnOnce40call_once$u7b$$u7b$vtable.shim$u7d$$u7d$17h143bdd5b2edae680E
	.seh_handler __CxxFrameHandler3, @unwind, @except
	pushq	%rbp
	.seh_pushreg %rbp
	pushq	%rsi
	.seh_pushreg %rsi
	pushq	%rdi
	.seh_pushreg %rdi
	pushq	%rbx
	.seh_pushreg %rbx
	subq	$104, %rsp
	.seh_stackalloc 104
	leaq	96(%rsp), %rbp
	.seh_setframe %rbp, 96
	.seh_endprologue
	movq	$-2, -8(%rbp)
	movb	$1, -9(%rbp)
	movb	$1, -10(%rbp)
	movb	$1, -11(%rbp)
	.cv_file	18 "/rustc/5680fa18feaa87f3ff04063800aec256c3d4b4be\\library\\std\\src\\thread\\mod.rs" "9392E1EC92740337FDC8C56C15E3E9F4476C1B64" 2
	.cv_inline_site_id 44 within 43 inlined_at 5 250 0
	.cv_loc	44 18 516 0
.Ltmp92:
	movq	%rcx, -24(%rbp)
.Ltmp112:
	callq	_ZN3std6thread6Thread5cname17h955ee69dccbbeb62E
.Ltmp93:
.Ltmp113:
	testq	%rax, %rax
	je	.LBB9_3
.Ltmp114:
	.cv_loc	44 18 517 0
	movb	$1, -9(%rbp)
	movb	$1, -10(%rbp)
	movb	$1, -11(%rbp)
.Ltmp94:
	movq	%rax, %rcx
	callq	_ZN3std3sys7windows6thread6Thread8set_name17hdde01203482c44dfE
.Ltmp115:
.Ltmp95:
.LBB9_3:
	.cv_loc	44 18 520 0
	movq	-24(%rbp), %rax
	movq	16(%rax), %rcx
	movb	$1, -9(%rbp)
	movb	$1, -10(%rbp)
	movb	$0, -11(%rbp)
.Ltmp96:
	callq	_ZN3std2io5stdio18set_output_capture17hb599e222d9372a03E
.Ltmp97:
.Ltmp116:
	.cv_inline_site_id 45 within 44 inlined_at 18 520 0
	.cv_loc	45 8 497 0
	testq	%rax, %rax
	je	.LBB9_7
.Ltmp117:
	.cv_inline_site_id 46 within 45 inlined_at 8 497 0
	.cv_inline_site_id 47 within 46 inlined_at 8 497 0
	.cv_file	19 "/rustc/5680fa18feaa87f3ff04063800aec256c3d4b4be\\library\\alloc\\src\\sync.rs" "9E82AA4D6DDADD3B9C1BEA41E1C7D90EE0E06686" 2
	.cv_inline_site_id 48 within 47 inlined_at 19 1862 0
	.cv_inline_site_id 49 within 48 inlined_at 3 2540 0
	.cv_loc	49 3 3205 0
	lock		decq	(%rax)
.Ltmp118:
	.cv_loc	47 19 1862 0
	jne	.LBB9_7
.Ltmp119:
	.cv_inline_site_id 50 within 47 inlined_at 19 66 0
	.cv_loc	50 3 3496 0
	#MEMBARRIER
	.cv_loc	47 19 1897 0
	movq	%rax, %rcx
	callq	_ZN5alloc4sync12Arc$LT$T$GT$9drop_slow17h35c08c6223537f27E
.Ltmp120:
.LBB9_7:
	.cv_loc	44 18 527 0
	movb	$1, -9(%rbp)
	movb	$1, -10(%rbp)
	movb	$0, -11(%rbp)
.Ltmp98:
.Ltmp121:
	callq	_ZN3std3sys7windows6thread5guard7current17hd6d95774100bf122E
.Ltmp99:
.Ltmp122:
	movq	-24(%rbp), %rax
	movq	(%rax), %rcx
	movb	$1, -9(%rbp)
	movb	$0, -10(%rbp)
	movb	$0, -11(%rbp)
.Ltmp100:
	callq	_ZN3std10sys_common11thread_info3set17h9bd1f833270a6cbdE
.Ltmp101:
.Ltmp123:
	.cv_inline_site_id 51 within 44 inlined_at 18 528 0
	.cv_file	20 "/rustc/5680fa18feaa87f3ff04063800aec256c3d4b4be\\library\\std\\src\\panic.rs" "F2B92C90C348AFB345FA497C908F6E9A248CC7B2" 2
	.cv_inline_site_id 52 within 51 inlined_at 20 142 0
	.cv_file	21 "/rustc/5680fa18feaa87f3ff04063800aec256c3d4b4be\\library\\std\\src\\panicking.rs" "816330E87DF178DEB165DED51A416F3EE3586191" 2
	.cv_inline_site_id 53 within 52 inlined_at 21 464 0
	.cv_inline_site_id 54 within 53 inlined_at 21 500 0
	.cv_file	22 "/rustc/5680fa18feaa87f3ff04063800aec256c3d4b4be\\library\\core\\src\\panic\\unwind_safe.rs" "FCE879DD5494C7180D005A61A4E1B68D0A749238" 2
	.cv_inline_site_id 55 within 54 inlined_at 22 271 0
	.cv_loc	55 18 529 0
	movb	$1, -9(%rbp)
	movb	$0, -10(%rbp)
	movb	$0, -11(%rbp)
.Ltmp102:
.Ltmp124:
	callq	_ZN3std10sys_common9backtrace28__rust_begin_short_backtrace17h1dfde16f70fbdb20E
.Ltmp125:
.Ltmp103:
	.cv_file	23 "/rustc/5680fa18feaa87f3ff04063800aec256c3d4b4be\\library\\core\\src\\ptr\\non_null.rs" "BB966315D4964C3AF250D895D98B7E7A4B6786B5" 2
	.cv_inline_site_id 56 within 44 inlined_at 18 535 0
	.cv_inline_site_id 57 within 56 inlined_at 19 1543 0
	.cv_inline_site_id 58 within 57 inlined_at 19 1255 0
	.cv_loc	58 23 376 0
	xorl	%esi, %esi
.Ltmp126:
	movq	-24(%rbp), %rax
.Ltmp127:
	movq	8(%rax), %rbx
.Ltmp128:
	.cv_inline_site_id 59 within 44 inlined_at 18 535 0
	.cv_loc	59 8 497 0
	cmpq	$0, 24(%rbx)
	je	.LBB9_23
.Ltmp129:
.LBB9_19:
	movq	32(%rbx), %rcx
.Ltmp130:
	.cv_inline_site_id 60 within 59 inlined_at 8 497 0
	.cv_loc	60 8 497 0
	testq	%rcx, %rcx
	je	.LBB9_23
.Ltmp131:
	.cv_loc	59 8 497 0
	movq	%rdi, -32(%rbp)
.Ltmp132:
	movq	%rsi, -40(%rbp)
.Ltmp133:
	movq	%rbx, -64(%rbp)
	movq	40(%rbx), %rax
.Ltmp134:
	.cv_inline_site_id 61 within 60 inlined_at 8 497 0
	.cv_loc	61 8 497 0
.Ltmp108:
	movq	%rcx, -56(%rbp)
	movq	%rax, -48(%rbp)
.Ltmp135:
	callq	*(%rax)
.Ltmp109:
.Ltmp136:
	.cv_inline_site_id 62 within 61 inlined_at 8 497 0
	.cv_inline_site_id 63 within 62 inlined_at 11 1221 0
	.cv_inline_site_id 64 within 63 inlined_at 12 199 0
	.cv_loc	64 10 394 0
	movq	-48(%rbp), %rax
.Ltmp137:
	movq	8(%rax), %rdx
.Ltmp138:
	.cv_inline_site_id 65 within 62 inlined_at 11 1222 0
	.cv_loc	65 13 255 0
	testq	%rdx, %rdx
	movq	-40(%rbp), %rsi
	movq	-32(%rbp), %rdi
	movq	-64(%rbp), %rbx
	movq	-56(%rbp), %rcx
	je	.LBB9_23
.Ltmp139:
	.cv_inline_site_id 66 within 65 inlined_at 13 258 0
	.cv_loc	66 13 121 0
	movq	16(%rax), %r8
.Ltmp140:
	callq	__rust_dealloc
.Ltmp141:
.LBB9_23:
	.cv_loc	44 18 535 0
	movq	$1, 24(%rbx)
	movq	%rsi, 32(%rbx)
	movq	%rdi, 40(%rbx)
	movq	-24(%rbp), %rax
	.cv_loc	44 18 539 0
	movq	8(%rax), %rcx
.Ltmp142:
	.cv_inline_site_id 67 within 44 inlined_at 18 539 0
	.cv_inline_site_id 68 within 67 inlined_at 10 987 0
	.cv_inline_site_id 69 within 68 inlined_at 8 497 0
	.cv_inline_site_id 70 within 69 inlined_at 19 1862 0
	.cv_inline_site_id 71 within 70 inlined_at 3 2540 0
	.cv_loc	71 3 3205 0
	lock		decq	(%rcx)
.Ltmp143:
	.cv_loc	69 19 1862 0
	jne	.LBB9_25
.Ltmp144:
	.cv_inline_site_id 72 within 69 inlined_at 19 66 0
	.cv_loc	72 3 3496 0
	#MEMBARRIER
	movb	$0, -9(%rbp)
	movb	$0, -10(%rbp)
	movb	$0, -11(%rbp)
	.cv_loc	69 19 1897 0
.Ltmp110:
	callq	_ZN5alloc4sync12Arc$LT$T$GT$9drop_slow17h12dcb8e2605acdf7E
.Ltmp145:
.Ltmp111:
.LBB9_25:
	.cv_loc	43 5 250 0
	nop
	addq	$104, %rsp
	popq	%rbx
	popq	%rdi
	popq	%rsi
	popq	%rbp
	retq
.Ltmp146:
.LBB9_17:
$ehgcr_9_17:
	.cv_loc	58 23 376 0
	movq	-40(%rbp), %rsi
	movq	-32(%rbp), %rdi
.Ltmp147:
	movq	-24(%rbp), %rax
.Ltmp148:
	movq	8(%rax), %rbx
.Ltmp149:
	.cv_loc	59 8 497 0
	cmpq	$0, 24(%rbx)
	jne	.LBB9_19
	jmp	.LBB9_23
.Ltmp150:
	.seh_handlerdata
	.long	($cppxdata$_ZN4core3ops8function6FnOnce40call_once$u7b$$u7b$vtable.shim$u7d$$u7d$17h143bdd5b2edae680E)@IMGREL
	.section	.text,"xr",one_only,_ZN4core3ops8function6FnOnce40call_once$u7b$$u7b$vtable.shim$u7d$$u7d$17h143bdd5b2edae680E
	.seh_endproc
	.def	"?catch$11@?0?_ZN4core3ops8function6FnOnce40call_once$u7b$$u7b$vtable.shim$u7d$$u7d$17h143bdd5b2edae680E@4HA";
	.scl	3;
	.type	32;
	.endef
	.p2align	4, 0x90
"?catch$11@?0?_ZN4core3ops8function6FnOnce40call_once$u7b$$u7b$vtable.shim$u7d$$u7d$17h143bdd5b2edae680E@4HA":
.seh_proc "?catch$11@?0?_ZN4core3ops8function6FnOnce40call_once$u7b$$u7b$vtable.shim$u7d$$u7d$17h143bdd5b2edae680E@4HA"
	.seh_handler __CxxFrameHandler3, @unwind, @except
.LBB9_11:
	movq	%rdx, 16(%rsp)
	pushq	%rbp
	.seh_pushreg %rbp
.Ltmp151:
	pushq	%rsi
	.seh_pushreg %rsi
	pushq	%rdi
	.seh_pushreg %rdi
	pushq	%rbx
	.seh_pushreg %rbx
	subq	$40, %rsp
	.seh_stackalloc 40
	leaq	96(%rdx), %rbp
.Ltmp152:
	.seh_endprologue
	.cv_inline_site_id 73 within 52 inlined_at 21 464 0
	.cv_loc	73 21 517 0
	callq	_ZN4core9panicking19panic_cannot_unwind17h54ebc55b37a3eb2aE
	ud2
.Ltmp153:
	.seh_handlerdata
	.long	($cppxdata$_ZN4core3ops8function6FnOnce40call_once$u7b$$u7b$vtable.shim$u7d$$u7d$17h143bdd5b2edae680E)@IMGREL
	.section	.text,"xr",one_only,_ZN4core3ops8function6FnOnce40call_once$u7b$$u7b$vtable.shim$u7d$$u7d$17h143bdd5b2edae680E
	.seh_endproc
	.def	"?catch$12@?0?_ZN4core3ops8function6FnOnce40call_once$u7b$$u7b$vtable.shim$u7d$$u7d$17h143bdd5b2edae680E@4HA";
	.scl	3;
	.type	32;
	.endef
	.p2align	4, 0x90
"?catch$12@?0?_ZN4core3ops8function6FnOnce40call_once$u7b$$u7b$vtable.shim$u7d$$u7d$17h143bdd5b2edae680E@4HA":
.seh_proc "?catch$12@?0?_ZN4core3ops8function6FnOnce40call_once$u7b$$u7b$vtable.shim$u7d$$u7d$17h143bdd5b2edae680E@4HA"
	.seh_handler __CxxFrameHandler3, @unwind, @except
.LBB9_12:
	movq	%rdx, 16(%rsp)
	pushq	%rbp
	.seh_pushreg %rbp
	pushq	%rsi
	.seh_pushreg %rsi
	pushq	%rdi
	.seh_pushreg %rdi
	pushq	%rbx
	.seh_pushreg %rbx
	subq	$40, %rsp
	.seh_stackalloc 40
	leaq	96(%rdx), %rbp
.Ltmp154:
	.seh_endprologue
	.cv_loc	52 21 464 0
	movq	(%rbp), %rcx
.Ltmp155:
	movb	$1, -9(%rbp)
	movb	$0, -10(%rbp)
	movb	$0, -11(%rbp)
	.cv_loc	73 21 526 0
.Ltmp106:
.Ltmp156:
	callq	_ZN3std9panicking3try7cleanup17h30fee0ef194feb74E
.Ltmp157:
	movq	%rax, -40(%rbp)
	movq	%rdx, -32(%rbp)
.Ltmp158:
.Ltmp107:
	.cv_loc	52 21 464 0
	leaq	.LBB9_17(%rip), %rax
	addq	$40, %rsp
	popq	%rbx
	popq	%rdi
	popq	%rsi
	popq	%rbp
	retq
.Ltmp159:
	.seh_handlerdata
	.long	($cppxdata$_ZN4core3ops8function6FnOnce40call_once$u7b$$u7b$vtable.shim$u7d$$u7d$17h143bdd5b2edae680E)@IMGREL
	.section	.text,"xr",one_only,_ZN4core3ops8function6FnOnce40call_once$u7b$$u7b$vtable.shim$u7d$$u7d$17h143bdd5b2edae680E
	.seh_endproc
	.def	"?catch$14@?0?_ZN4core3ops8function6FnOnce40call_once$u7b$$u7b$vtable.shim$u7d$$u7d$17h143bdd5b2edae680E@4HA";
	.scl	3;
	.type	32;
	.endef
	.p2align	4, 0x90
"?catch$14@?0?_ZN4core3ops8function6FnOnce40call_once$u7b$$u7b$vtable.shim$u7d$$u7d$17h143bdd5b2edae680E@4HA":
.seh_proc "?catch$14@?0?_ZN4core3ops8function6FnOnce40call_once$u7b$$u7b$vtable.shim$u7d$$u7d$17h143bdd5b2edae680E@4HA"
	.seh_handler __CxxFrameHandler3, @unwind, @except
.LBB9_14:
	movq	%rdx, 16(%rsp)
	pushq	%rbp
	.seh_pushreg %rbp
.Ltmp160:
	pushq	%rsi
	.seh_pushreg %rsi
	pushq	%rdi
	.seh_pushreg %rdi
	pushq	%rbx
	.seh_pushreg %rbx
	subq	$40, %rsp
	.seh_stackalloc 40
	leaq	96(%rdx), %rbp
.Ltmp161:
	.seh_endprologue
	.cv_inline_site_id 74 within 52 inlined_at 21 464 0
	.cv_loc	74 21 517 0
	callq	_ZN4core9panicking19panic_cannot_unwind17h54ebc55b37a3eb2aE
	ud2
.Ltmp162:
	.seh_handlerdata
	.long	($cppxdata$_ZN4core3ops8function6FnOnce40call_once$u7b$$u7b$vtable.shim$u7d$$u7d$17h143bdd5b2edae680E)@IMGREL
	.section	.text,"xr",one_only,_ZN4core3ops8function6FnOnce40call_once$u7b$$u7b$vtable.shim$u7d$$u7d$17h143bdd5b2edae680E
	.seh_endproc
	.def	"?catch$15@?0?_ZN4core3ops8function6FnOnce40call_once$u7b$$u7b$vtable.shim$u7d$$u7d$17h143bdd5b2edae680E@4HA";
	.scl	3;
	.type	32;
	.endef
	.p2align	4, 0x90
"?catch$15@?0?_ZN4core3ops8function6FnOnce40call_once$u7b$$u7b$vtable.shim$u7d$$u7d$17h143bdd5b2edae680E@4HA":
.seh_proc "?catch$15@?0?_ZN4core3ops8function6FnOnce40call_once$u7b$$u7b$vtable.shim$u7d$$u7d$17h143bdd5b2edae680E@4HA"
	.seh_handler __CxxFrameHandler3, @unwind, @except
.LBB9_15:
	movq	%rdx, 16(%rsp)
	pushq	%rbp
	.seh_pushreg %rbp
	pushq	%rsi
	.seh_pushreg %rsi
	pushq	%rdi
	.seh_pushreg %rdi
	pushq	%rbx
	.seh_pushreg %rbx
	subq	$40, %rsp
	.seh_stackalloc 40
	leaq	96(%rdx), %rbp
.Ltmp163:
	.seh_endprologue
.Ltmp164:
	movb	$1, -9(%rbp)
	movb	$0, -10(%rbp)
	movb	$0, -11(%rbp)
	.cv_loc	74 21 526 0
.Ltmp104:
.Ltmp165:
	xorl	%ecx, %ecx
	callq	_ZN3std9panicking3try7cleanup17h30fee0ef194feb74E
	movq	%rax, -40(%rbp)
	movq	%rdx, -32(%rbp)
.Ltmp166:
.Ltmp105:
	.cv_loc	52 21 464 0
	leaq	.LBB9_17(%rip), %rax
	addq	$40, %rsp
	popq	%rbx
	popq	%rdi
	popq	%rsi
	popq	%rbp
	retq
.Ltmp167:
	.seh_handlerdata
	.long	($cppxdata$_ZN4core3ops8function6FnOnce40call_once$u7b$$u7b$vtable.shim$u7d$$u7d$17h143bdd5b2edae680E)@IMGREL
	.section	.text,"xr",one_only,_ZN4core3ops8function6FnOnce40call_once$u7b$$u7b$vtable.shim$u7d$$u7d$17h143bdd5b2edae680E
	.seh_endproc
	.def	"?dtor$26@?0?_ZN4core3ops8function6FnOnce40call_once$u7b$$u7b$vtable.shim$u7d$$u7d$17h143bdd5b2edae680E@4HA";
	.scl	3;
	.type	32;
	.endef
	.p2align	4, 0x90
"?dtor$26@?0?_ZN4core3ops8function6FnOnce40call_once$u7b$$u7b$vtable.shim$u7d$$u7d$17h143bdd5b2edae680E@4HA":
.seh_proc "?dtor$26@?0?_ZN4core3ops8function6FnOnce40call_once$u7b$$u7b$vtable.shim$u7d$$u7d$17h143bdd5b2edae680E@4HA"
.LBB9_26:
	movq	%rdx, 16(%rsp)
	pushq	%rbp
	.seh_pushreg %rbp
	pushq	%rsi
	.seh_pushreg %rsi
	pushq	%rdi
	.seh_pushreg %rdi
	pushq	%rbx
	.seh_pushreg %rbx
	subq	$40, %rsp
	.seh_stackalloc 40
	leaq	96(%rdx), %rbp
.Ltmp168:
	.seh_endprologue
	movzbl	-11(%rbp), %esi
	movzbl	-9(%rbp), %ebx
	.cv_loc	44 18 542 0
	cmpb	$0, -10(%rbp)
	jne	.LBB9_33
.Ltmp169:
	testb	$1, %sil
	jne	.LBB9_28
.Ltmp170:
.LBB9_29:
	testb	$1, %bl
	je	.LBB9_31
.Ltmp171:
.LBB9_30:
	movq	-24(%rbp), %rax
	movq	8(%rax), %rcx
	callq	_ZN4core3ptr80drop_in_place$LT$alloc..sync..Arc$LT$std..thread..Packet$LT$$LP$$RP$$GT$$GT$$GT$17ha058be337863582dE
.Ltmp172:
.LBB9_31:
	.cv_loc	44 18 515 0
	nop
	addq	$40, %rsp
	popq	%rbx
	popq	%rdi
	popq	%rsi
	popq	%rbp
	retq
.Ltmp173:
.LBB9_33:
	.cv_loc	44 18 542 0
	movq	-24(%rbp), %rax
	movq	(%rax), %rcx
	callq	_ZN4core3ptr40drop_in_place$LT$std..thread..Thread$GT$17hf8a0d34335fb1b2fE
	testb	$1, %sil
	je	.LBB9_29
.Ltmp174:
.LBB9_28:
	movq	-24(%rbp), %rax
	movq	16(%rax), %rcx
	callq	_ZN4core3ptr129drop_in_place$LT$core..option..Option$LT$alloc..sync..Arc$LT$std..sync..mutex..Mutex$LT$alloc..vec..Vec$LT$u8$GT$$GT$$GT$$GT$$GT$17haf66c382f93ff638E
	testb	$1, %bl
	jne	.LBB9_30
	jmp	.LBB9_31
.Ltmp175:
	.seh_handlerdata
	.section	.text,"xr",one_only,_ZN4core3ops8function6FnOnce40call_once$u7b$$u7b$vtable.shim$u7d$$u7d$17h143bdd5b2edae680E
	.seh_endproc
	.def	"?dtor$32@?0?_ZN4core3ops8function6FnOnce40call_once$u7b$$u7b$vtable.shim$u7d$$u7d$17h143bdd5b2edae680E@4HA";
	.scl	3;
	.type	32;
	.endef
	.p2align	4, 0x90
"?dtor$32@?0?_ZN4core3ops8function6FnOnce40call_once$u7b$$u7b$vtable.shim$u7d$$u7d$17h143bdd5b2edae680E@4HA":
.seh_proc "?dtor$32@?0?_ZN4core3ops8function6FnOnce40call_once$u7b$$u7b$vtable.shim$u7d$$u7d$17h143bdd5b2edae680E@4HA"
.LBB9_32:
	movq	%rdx, 16(%rsp)
	pushq	%rbp
	.seh_pushreg %rbp
	pushq	%rsi
	.seh_pushreg %rsi
	pushq	%rdi
	.seh_pushreg %rdi
	pushq	%rbx
	.seh_pushreg %rbx
	subq	$40, %rsp
	.seh_stackalloc 40
	leaq	96(%rdx), %rbp
.Ltmp176:
	.seh_endprologue
	movq	-56(%rbp), %rcx
	movq	-48(%rbp), %rdx
.Ltmp177:
	.cv_loc	61 8 497 0
	callq	_ZN72_$LT$alloc..boxed..Box$LT$T$C$A$GT$$u20$as$u20$core..ops..drop..Drop$GT$4drop17h6741ce1b38ae4f6bE
	movq	-64(%rbp), %rcx
.Ltmp178:
	.cv_loc	44 18 535 0
	movq	$1, 24(%rcx)
	movq	-40(%rbp), %rax
	movq	%rax, 32(%rcx)
	movq	-32(%rbp), %rax
	movq	%rax, 40(%rcx)
	movb	$1, -9(%rbp)
	movb	$0, -10(%rbp)
	movb	$0, -11(%rbp)
	addq	$40, %rsp
	popq	%rbx
	popq	%rdi
	popq	%rsi
	popq	%rbp
	retq
.Ltmp179:
.Lfunc_end9:
	.seh_handlerdata
	.section	.text,"xr",one_only,_ZN4core3ops8function6FnOnce40call_once$u7b$$u7b$vtable.shim$u7d$$u7d$17h143bdd5b2edae680E
	.seh_endproc
	.section	.xdata,"dr",associative,_ZN4core3ops8function6FnOnce40call_once$u7b$$u7b$vtable.shim$u7d$$u7d$17h143bdd5b2edae680E
	.p2align	2, 0x0
$cppxdata$_ZN4core3ops8function6FnOnce40call_once$u7b$$u7b$vtable.shim$u7d$$u7d$17h143bdd5b2edae680E:
	.long	429065506
	.long	8
	.long	($stateUnwindMap$_ZN4core3ops8function6FnOnce40call_once$u7b$$u7b$vtable.shim$u7d$$u7d$17h143bdd5b2edae680E)@IMGREL
	.long	3
	.long	($tryMap$_ZN4core3ops8function6FnOnce40call_once$u7b$$u7b$vtable.shim$u7d$$u7d$17h143bdd5b2edae680E)@IMGREL
	.long	14
	.long	($ip2state$_ZN4core3ops8function6FnOnce40call_once$u7b$$u7b$vtable.shim$u7d$$u7d$17h143bdd5b2edae680E)@IMGREL
	.long	88
	.long	0
	.long	1
$stateUnwindMap$_ZN4core3ops8function6FnOnce40call_once$u7b$$u7b$vtable.shim$u7d$$u7d$17h143bdd5b2edae680E:
	.long	-1
	.long	"?dtor$26@?0?_ZN4core3ops8function6FnOnce40call_once$u7b$$u7b$vtable.shim$u7d$$u7d$17h143bdd5b2edae680E@4HA"@IMGREL
	.long	0
	.long	"?dtor$32@?0?_ZN4core3ops8function6FnOnce40call_once$u7b$$u7b$vtable.shim$u7d$$u7d$17h143bdd5b2edae680E@4HA"@IMGREL
	.long	0
	.long	0
	.long	0
	.long	0
	.long	3
	.long	0
	.long	3
	.long	0
	.long	3
	.long	0
	.long	3
	.long	0
$tryMap$_ZN4core3ops8function6FnOnce40call_once$u7b$$u7b$vtable.shim$u7d$$u7d$17h143bdd5b2edae680E:
	.long	2
	.long	2
	.long	7
	.long	2
	.long	($handlerMap$0$_ZN4core3ops8function6FnOnce40call_once$u7b$$u7b$vtable.shim$u7d$$u7d$17h143bdd5b2edae680E)@IMGREL
	.long	4
	.long	4
	.long	5
	.long	1
	.long	($handlerMap$1$_ZN4core3ops8function6FnOnce40call_once$u7b$$u7b$vtable.shim$u7d$$u7d$17h143bdd5b2edae680E)@IMGREL
	.long	6
	.long	6
	.long	7
	.long	1
	.long	($handlerMap$2$_ZN4core3ops8function6FnOnce40call_once$u7b$$u7b$vtable.shim$u7d$$u7d$17h143bdd5b2edae680E)@IMGREL
$handlerMap$0$_ZN4core3ops8function6FnOnce40call_once$u7b$$u7b$vtable.shim$u7d$$u7d$17h143bdd5b2edae680E:
	.long	8
	.long	__rust_panic_type_info@IMGREL
	.long	96
	.long	"?catch$12@?0?_ZN4core3ops8function6FnOnce40call_once$u7b$$u7b$vtable.shim$u7d$$u7d$17h143bdd5b2edae680E@4HA"@IMGREL
	.long	88
	.long	64
	.long	0
	.long	0
	.long	"?catch$15@?0?_ZN4core3ops8function6FnOnce40call_once$u7b$$u7b$vtable.shim$u7d$$u7d$17h143bdd5b2edae680E@4HA"@IMGREL
	.long	88
$handlerMap$1$_ZN4core3ops8function6FnOnce40call_once$u7b$$u7b$vtable.shim$u7d$$u7d$17h143bdd5b2edae680E:
	.long	64
	.long	0
	.long	0
	.long	"?catch$11@?0?_ZN4core3ops8function6FnOnce40call_once$u7b$$u7b$vtable.shim$u7d$$u7d$17h143bdd5b2edae680E@4HA"@IMGREL
	.long	88
$handlerMap$2$_ZN4core3ops8function6FnOnce40call_once$u7b$$u7b$vtable.shim$u7d$$u7d$17h143bdd5b2edae680E:
	.long	64
	.long	0
	.long	0
	.long	"?catch$14@?0?_ZN4core3ops8function6FnOnce40call_once$u7b$$u7b$vtable.shim$u7d$$u7d$17h143bdd5b2edae680E@4HA"@IMGREL
	.long	88
$ip2state$_ZN4core3ops8function6FnOnce40call_once$u7b$$u7b$vtable.shim$u7d$$u7d$17h143bdd5b2edae680E:
	.long	.Lfunc_begin9@IMGREL
	.long	-1
	.long	.Ltmp92@IMGREL+1
	.long	0
	.long	.Ltmp102@IMGREL+1
	.long	2
	.long	.Ltmp108@IMGREL+1
	.long	1
	.long	.Ltmp110@IMGREL+1
	.long	0
	.long	.Ltmp111@IMGREL+1
	.long	-1
	.long	"?catch$11@?0?_ZN4core3ops8function6FnOnce40call_once$u7b$$u7b$vtable.shim$u7d$$u7d$17h143bdd5b2edae680E@4HA"@IMGREL
	.long	5
	.long	"?catch$12@?0?_ZN4core3ops8function6FnOnce40call_once$u7b$$u7b$vtable.shim$u7d$$u7d$17h143bdd5b2edae680E@4HA"@IMGREL
	.long	3
	.long	.Ltmp106@IMGREL+1
	.long	4
	.long	.Ltmp107@IMGREL+1
	.long	3
	.long	"?catch$14@?0?_ZN4core3ops8function6FnOnce40call_once$u7b$$u7b$vtable.shim$u7d$$u7d$17h143bdd5b2edae680E@4HA"@IMGREL
	.long	7
	.long	"?catch$15@?0?_ZN4core3ops8function6FnOnce40call_once$u7b$$u7b$vtable.shim$u7d$$u7d$17h143bdd5b2edae680E@4HA"@IMGREL
	.long	3
	.long	.Ltmp104@IMGREL+1
	.long	6
	.long	.Ltmp105@IMGREL+1
	.long	3
	.section	.text,"xr",one_only,_ZN4core3ops8function6FnOnce40call_once$u7b$$u7b$vtable.shim$u7d$$u7d$17h143bdd5b2edae680E

	.def	_ZN4core3ops8function6FnOnce40call_once$u7b$$u7b$vtable.shim$u7d$$u7d$17h6d6be17418e5d1d8E;
	.scl	3;
	.type	32;
	.endef
	.section	.text,"xr",one_only,_ZN4core3ops8function6FnOnce40call_once$u7b$$u7b$vtable.shim$u7d$$u7d$17h6d6be17418e5d1d8E
	.p2align	4, 0x90
_ZN4core3ops8function6FnOnce40call_once$u7b$$u7b$vtable.shim$u7d$$u7d$17h6d6be17418e5d1d8E:
.Lfunc_begin10:
	.cv_func_id 75
	.cv_loc	75 5 250 0
.seh_proc _ZN4core3ops8function6FnOnce40call_once$u7b$$u7b$vtable.shim$u7d$$u7d$17h6d6be17418e5d1d8E
	.seh_handler __CxxFrameHandler3, @unwind, @except
	pushq	%rbp
	.seh_pushreg %rbp
	pushq	%rsi
	.seh_pushreg %rsi
	pushq	%rdi
	.seh_pushreg %rdi
	pushq	%rbx
	.seh_pushreg %rbx
	subq	$104, %rsp
	.seh_stackalloc 104
	leaq	96(%rsp), %rbp
	.seh_setframe %rbp, 96
	.seh_endprologue
	movq	$-2, -8(%rbp)
	movb	$1, -9(%rbp)
	movb	$1, -10(%rbp)
	movb	$1, -11(%rbp)
	.cv_inline_site_id 76 within 75 inlined_at 5 250 0
	.cv_loc	76 18 516 0
.Ltmp180:
	movq	%rcx, -24(%rbp)
.Ltmp200:
	callq	_ZN3std6thread6Thread5cname17h955ee69dccbbeb62E
.Ltmp181:
.Ltmp201:
	testq	%rax, %rax
	je	.LBB10_3
.Ltmp202:
	.cv_loc	76 18 517 0
	movb	$1, -9(%rbp)
	movb	$1, -10(%rbp)
	movb	$1, -11(%rbp)
.Ltmp182:
	movq	%rax, %rcx
	callq	_ZN3std3sys7windows6thread6Thread8set_name17hdde01203482c44dfE
.Ltmp203:
.Ltmp183:
.LBB10_3:
	.cv_loc	76 18 520 0
	movq	-24(%rbp), %rax
	movq	16(%rax), %rcx
	movb	$1, -9(%rbp)
	movb	$1, -10(%rbp)
	movb	$0, -11(%rbp)
.Ltmp184:
	callq	_ZN3std2io5stdio18set_output_capture17hb599e222d9372a03E
.Ltmp185:
.Ltmp204:
	.cv_inline_site_id 77 within 76 inlined_at 18 520 0
	.cv_loc	77 8 497 0
	testq	%rax, %rax
	je	.LBB10_7
.Ltmp205:
	.cv_inline_site_id 78 within 77 inlined_at 8 497 0
	.cv_inline_site_id 79 within 78 inlined_at 8 497 0
	.cv_inline_site_id 80 within 79 inlined_at 19 1862 0
	.cv_inline_site_id 81 within 80 inlined_at 3 2540 0
	.cv_loc	81 3 3205 0
	lock		decq	(%rax)
.Ltmp206:
	.cv_loc	79 19 1862 0
	jne	.LBB10_7
.Ltmp207:
	.cv_inline_site_id 82 within 79 inlined_at 19 66 0
	.cv_loc	82 3 3496 0
	#MEMBARRIER
	.cv_loc	79 19 1897 0
	movq	%rax, %rcx
	callq	_ZN5alloc4sync12Arc$LT$T$GT$9drop_slow17h35c08c6223537f27E
.Ltmp208:
.LBB10_7:
	.cv_loc	76 18 527 0
	movb	$1, -9(%rbp)
	movb	$1, -10(%rbp)
	movb	$0, -11(%rbp)
.Ltmp186:
.Ltmp209:
	callq	_ZN3std3sys7windows6thread5guard7current17hd6d95774100bf122E
.Ltmp187:
.Ltmp210:
	movq	-24(%rbp), %rax
	movq	(%rax), %rcx
	movb	$1, -9(%rbp)
	movb	$0, -10(%rbp)
	movb	$0, -11(%rbp)
.Ltmp188:
	callq	_ZN3std10sys_common11thread_info3set17h9bd1f833270a6cbdE
.Ltmp189:
.Ltmp211:
	.cv_inline_site_id 83 within 76 inlined_at 18 528 0
	.cv_inline_site_id 84 within 83 inlined_at 20 142 0
	.cv_inline_site_id 85 within 84 inlined_at 21 464 0
	.cv_inline_site_id 86 within 85 inlined_at 21 500 0
	.cv_inline_site_id 87 within 86 inlined_at 22 271 0
	.cv_loc	87 18 529 0
	movb	$1, -9(%rbp)
	movb	$0, -10(%rbp)
	movb	$0, -11(%rbp)
.Ltmp190:
.Ltmp212:
	callq	_ZN3std10sys_common9backtrace28__rust_begin_short_backtrace17h783102f2ba7e19acE
.Ltmp213:
.Ltmp191:
	.cv_inline_site_id 88 within 76 inlined_at 18 535 0
	.cv_inline_site_id 89 within 88 inlined_at 19 1543 0
	.cv_inline_site_id 90 within 89 inlined_at 19 1255 0
	.cv_loc	90 23 376 0
	xorl	%esi, %esi
.Ltmp214:
	movq	-24(%rbp), %rax
.Ltmp215:
	movq	8(%rax), %rbx
.Ltmp216:
	.cv_inline_site_id 91 within 76 inlined_at 18 535 0
	.cv_loc	91 8 497 0
	cmpq	$0, 24(%rbx)
	je	.LBB10_23
.Ltmp217:
.LBB10_19:
	movq	32(%rbx), %rcx
.Ltmp218:
	.cv_inline_site_id 92 within 91 inlined_at 8 497 0
	.cv_loc	92 8 497 0
	testq	%rcx, %rcx
	je	.LBB10_23
.Ltmp219:
	.cv_loc	91 8 497 0
	movq	%rdi, -32(%rbp)
.Ltmp220:
	movq	%rsi, -40(%rbp)
.Ltmp221:
	movq	%rbx, -64(%rbp)
	movq	40(%rbx), %rax
.Ltmp222:
	.cv_inline_site_id 93 within 92 inlined_at 8 497 0
	.cv_loc	93 8 497 0
.Ltmp196:
	movq	%rcx, -56(%rbp)
	movq	%rax, -48(%rbp)
.Ltmp223:
	callq	*(%rax)
.Ltmp197:
.Ltmp224:
	.cv_inline_site_id 94 within 93 inlined_at 8 497 0
	.cv_inline_site_id 95 within 94 inlined_at 11 1221 0
	.cv_inline_site_id 96 within 95 inlined_at 12 199 0
	.cv_loc	96 10 394 0
	movq	-48(%rbp), %rax
.Ltmp225:
	movq	8(%rax), %rdx
.Ltmp226:
	.cv_inline_site_id 97 within 94 inlined_at 11 1222 0
	.cv_loc	97 13 255 0
	testq	%rdx, %rdx
	movq	-40(%rbp), %rsi
	movq	-32(%rbp), %rdi
	movq	-64(%rbp), %rbx
	movq	-56(%rbp), %rcx
	je	.LBB10_23
.Ltmp227:
	.cv_inline_site_id 98 within 97 inlined_at 13 258 0
	.cv_loc	98 13 121 0
	movq	16(%rax), %r8
.Ltmp228:
	callq	__rust_dealloc
.Ltmp229:
.LBB10_23:
	.cv_loc	76 18 535 0
	movq	$1, 24(%rbx)
	movq	%rsi, 32(%rbx)
	movq	%rdi, 40(%rbx)
	movq	-24(%rbp), %rax
	.cv_loc	76 18 539 0
	movq	8(%rax), %rcx
.Ltmp230:
	.cv_inline_site_id 99 within 76 inlined_at 18 539 0
	.cv_inline_site_id 100 within 99 inlined_at 10 987 0
	.cv_inline_site_id 101 within 100 inlined_at 8 497 0
	.cv_inline_site_id 102 within 101 inlined_at 19 1862 0
	.cv_inline_site_id 103 within 102 inlined_at 3 2540 0
	.cv_loc	103 3 3205 0
	lock		decq	(%rcx)
.Ltmp231:
	.cv_loc	101 19 1862 0
	jne	.LBB10_25
.Ltmp232:
	.cv_inline_site_id 104 within 101 inlined_at 19 66 0
	.cv_loc	104 3 3496 0
	#MEMBARRIER
	movb	$0, -9(%rbp)
	movb	$0, -10(%rbp)
	movb	$0, -11(%rbp)
	.cv_loc	101 19 1897 0
.Ltmp198:
	callq	_ZN5alloc4sync12Arc$LT$T$GT$9drop_slow17h12dcb8e2605acdf7E
.Ltmp233:
.Ltmp199:
.LBB10_25:
	.cv_loc	75 5 250 0
	nop
	addq	$104, %rsp
	popq	%rbx
	popq	%rdi
	popq	%rsi
	popq	%rbp
	retq
.Ltmp234:
.LBB10_17:
$ehgcr_10_17:
	.cv_loc	90 23 376 0
	movq	-40(%rbp), %rsi
	movq	-32(%rbp), %rdi
.Ltmp235:
	movq	-24(%rbp), %rax
.Ltmp236:
	movq	8(%rax), %rbx
.Ltmp237:
	.cv_loc	91 8 497 0
	cmpq	$0, 24(%rbx)
	jne	.LBB10_19
	jmp	.LBB10_23
.Ltmp238:
	.seh_handlerdata
	.long	($cppxdata$_ZN4core3ops8function6FnOnce40call_once$u7b$$u7b$vtable.shim$u7d$$u7d$17h6d6be17418e5d1d8E)@IMGREL
	.section	.text,"xr",one_only,_ZN4core3ops8function6FnOnce40call_once$u7b$$u7b$vtable.shim$u7d$$u7d$17h6d6be17418e5d1d8E
	.seh_endproc
	.def	"?catch$11@?0?_ZN4core3ops8function6FnOnce40call_once$u7b$$u7b$vtable.shim$u7d$$u7d$17h6d6be17418e5d1d8E@4HA";
	.scl	3;
	.type	32;
	.endef
	.p2align	4, 0x90
"?catch$11@?0?_ZN4core3ops8function6FnOnce40call_once$u7b$$u7b$vtable.shim$u7d$$u7d$17h6d6be17418e5d1d8E@4HA":
.seh_proc "?catch$11@?0?_ZN4core3ops8function6FnOnce40call_once$u7b$$u7b$vtable.shim$u7d$$u7d$17h6d6be17418e5d1d8E@4HA"
	.seh_handler __CxxFrameHandler3, @unwind, @except
.LBB10_11:
	movq	%rdx, 16(%rsp)
	pushq	%rbp
	.seh_pushreg %rbp
.Ltmp239:
	pushq	%rsi
	.seh_pushreg %rsi
	pushq	%rdi
	.seh_pushreg %rdi
	pushq	%rbx
	.seh_pushreg %rbx
	subq	$40, %rsp
	.seh_stackalloc 40
	leaq	96(%rdx), %rbp
.Ltmp240:
	.seh_endprologue
	.cv_inline_site_id 105 within 84 inlined_at 21 464 0
	.cv_loc	105 21 517 0
	callq	_ZN4core9panicking19panic_cannot_unwind17h54ebc55b37a3eb2aE
	ud2
.Ltmp241:
	.seh_handlerdata
	.long	($cppxdata$_ZN4core3ops8function6FnOnce40call_once$u7b$$u7b$vtable.shim$u7d$$u7d$17h6d6be17418e5d1d8E)@IMGREL
	.section	.text,"xr",one_only,_ZN4core3ops8function6FnOnce40call_once$u7b$$u7b$vtable.shim$u7d$$u7d$17h6d6be17418e5d1d8E
	.seh_endproc
	.def	"?catch$12@?0?_ZN4core3ops8function6FnOnce40call_once$u7b$$u7b$vtable.shim$u7d$$u7d$17h6d6be17418e5d1d8E@4HA";
	.scl	3;
	.type	32;
	.endef
	.p2align	4, 0x90
"?catch$12@?0?_ZN4core3ops8function6FnOnce40call_once$u7b$$u7b$vtable.shim$u7d$$u7d$17h6d6be17418e5d1d8E@4HA":
.seh_proc "?catch$12@?0?_ZN4core3ops8function6FnOnce40call_once$u7b$$u7b$vtable.shim$u7d$$u7d$17h6d6be17418e5d1d8E@4HA"
	.seh_handler __CxxFrameHandler3, @unwind, @except
.LBB10_12:
	movq	%rdx, 16(%rsp)
	pushq	%rbp
	.seh_pushreg %rbp
	pushq	%rsi
	.seh_pushreg %rsi
	pushq	%rdi
	.seh_pushreg %rdi
	pushq	%rbx
	.seh_pushreg %rbx
	subq	$40, %rsp
	.seh_stackalloc 40
	leaq	96(%rdx), %rbp
.Ltmp242:
	.seh_endprologue
	.cv_loc	84 21 464 0
	movq	(%rbp), %rcx
.Ltmp243:
	movb	$1, -9(%rbp)
	movb	$0, -10(%rbp)
	movb	$0, -11(%rbp)
	.cv_loc	105 21 526 0
.Ltmp194:
.Ltmp244:
	callq	_ZN3std9panicking3try7cleanup17h30fee0ef194feb74E
.Ltmp245:
	movq	%rax, -40(%rbp)
	movq	%rdx, -32(%rbp)
.Ltmp246:
.Ltmp195:
	.cv_loc	84 21 464 0
	leaq	.LBB10_17(%rip), %rax
	addq	$40, %rsp
	popq	%rbx
	popq	%rdi
	popq	%rsi
	popq	%rbp
	retq
.Ltmp247:
	.seh_handlerdata
	.long	($cppxdata$_ZN4core3ops8function6FnOnce40call_once$u7b$$u7b$vtable.shim$u7d$$u7d$17h6d6be17418e5d1d8E)@IMGREL
	.section	.text,"xr",one_only,_ZN4core3ops8function6FnOnce40call_once$u7b$$u7b$vtable.shim$u7d$$u7d$17h6d6be17418e5d1d8E
	.seh_endproc
	.def	"?catch$14@?0?_ZN4core3ops8function6FnOnce40call_once$u7b$$u7b$vtable.shim$u7d$$u7d$17h6d6be17418e5d1d8E@4HA";
	.scl	3;
	.type	32;
	.endef
	.p2align	4, 0x90
"?catch$14@?0?_ZN4core3ops8function6FnOnce40call_once$u7b$$u7b$vtable.shim$u7d$$u7d$17h6d6be17418e5d1d8E@4HA":
.seh_proc "?catch$14@?0?_ZN4core3ops8function6FnOnce40call_once$u7b$$u7b$vtable.shim$u7d$$u7d$17h6d6be17418e5d1d8E@4HA"
	.seh_handler __CxxFrameHandler3, @unwind, @except
.LBB10_14:
	movq	%rdx, 16(%rsp)
	pushq	%rbp
	.seh_pushreg %rbp
.Ltmp248:
	pushq	%rsi
	.seh_pushreg %rsi
	pushq	%rdi
	.seh_pushreg %rdi
	pushq	%rbx
	.seh_pushreg %rbx
	subq	$40, %rsp
	.seh_stackalloc 40
	leaq	96(%rdx), %rbp
.Ltmp249:
	.seh_endprologue
	.cv_inline_site_id 106 within 84 inlined_at 21 464 0
	.cv_loc	106 21 517 0
	callq	_ZN4core9panicking19panic_cannot_unwind17h54ebc55b37a3eb2aE
	ud2
.Ltmp250:
	.seh_handlerdata
	.long	($cppxdata$_ZN4core3ops8function6FnOnce40call_once$u7b$$u7b$vtable.shim$u7d$$u7d$17h6d6be17418e5d1d8E)@IMGREL
	.section	.text,"xr",one_only,_ZN4core3ops8function6FnOnce40call_once$u7b$$u7b$vtable.shim$u7d$$u7d$17h6d6be17418e5d1d8E
	.seh_endproc
	.def	"?catch$15@?0?_ZN4core3ops8function6FnOnce40call_once$u7b$$u7b$vtable.shim$u7d$$u7d$17h6d6be17418e5d1d8E@4HA";
	.scl	3;
	.type	32;
	.endef
	.p2align	4, 0x90
"?catch$15@?0?_ZN4core3ops8function6FnOnce40call_once$u7b$$u7b$vtable.shim$u7d$$u7d$17h6d6be17418e5d1d8E@4HA":
.seh_proc "?catch$15@?0?_ZN4core3ops8function6FnOnce40call_once$u7b$$u7b$vtable.shim$u7d$$u7d$17h6d6be17418e5d1d8E@4HA"
	.seh_handler __CxxFrameHandler3, @unwind, @except
.LBB10_15:
	movq	%rdx, 16(%rsp)
	pushq	%rbp
	.seh_pushreg %rbp
	pushq	%rsi
	.seh_pushreg %rsi
	pushq	%rdi
	.seh_pushreg %rdi
	pushq	%rbx
	.seh_pushreg %rbx
	subq	$40, %rsp
	.seh_stackalloc 40
	leaq	96(%rdx), %rbp
.Ltmp251:
	.seh_endprologue
.Ltmp252:
	movb	$1, -9(%rbp)
	movb	$0, -10(%rbp)
	movb	$0, -11(%rbp)
	.cv_loc	106 21 526 0
.Ltmp192:
.Ltmp253:
	xorl	%ecx, %ecx
	callq	_ZN3std9panicking3try7cleanup17h30fee0ef194feb74E
	movq	%rax, -40(%rbp)
	movq	%rdx, -32(%rbp)
.Ltmp254:
.Ltmp193:
	.cv_loc	84 21 464 0
	leaq	.LBB10_17(%rip), %rax
	addq	$40, %rsp
	popq	%rbx
	popq	%rdi
	popq	%rsi
	popq	%rbp
	retq
.Ltmp255:
	.seh_handlerdata
	.long	($cppxdata$_ZN4core3ops8function6FnOnce40call_once$u7b$$u7b$vtable.shim$u7d$$u7d$17h6d6be17418e5d1d8E)@IMGREL
	.section	.text,"xr",one_only,_ZN4core3ops8function6FnOnce40call_once$u7b$$u7b$vtable.shim$u7d$$u7d$17h6d6be17418e5d1d8E
	.seh_endproc
	.def	"?dtor$26@?0?_ZN4core3ops8function6FnOnce40call_once$u7b$$u7b$vtable.shim$u7d$$u7d$17h6d6be17418e5d1d8E@4HA";
	.scl	3;
	.type	32;
	.endef
	.p2align	4, 0x90
"?dtor$26@?0?_ZN4core3ops8function6FnOnce40call_once$u7b$$u7b$vtable.shim$u7d$$u7d$17h6d6be17418e5d1d8E@4HA":
.seh_proc "?dtor$26@?0?_ZN4core3ops8function6FnOnce40call_once$u7b$$u7b$vtable.shim$u7d$$u7d$17h6d6be17418e5d1d8E@4HA"
.LBB10_26:
	movq	%rdx, 16(%rsp)
	pushq	%rbp
	.seh_pushreg %rbp
	pushq	%rsi
	.seh_pushreg %rsi
	pushq	%rdi
	.seh_pushreg %rdi
	pushq	%rbx
	.seh_pushreg %rbx
	subq	$40, %rsp
	.seh_stackalloc 40
	leaq	96(%rdx), %rbp
.Ltmp256:
	.seh_endprologue
	movzbl	-11(%rbp), %esi
	movzbl	-9(%rbp), %ebx
	.cv_loc	76 18 542 0
	cmpb	$0, -10(%rbp)
	jne	.LBB10_33
.Ltmp257:
	testb	$1, %sil
	jne	.LBB10_28
.Ltmp258:
.LBB10_29:
	testb	$1, %bl
	je	.LBB10_31
.Ltmp259:
.LBB10_30:
	movq	-24(%rbp), %rax
	movq	8(%rax), %rcx
	callq	_ZN4core3ptr80drop_in_place$LT$alloc..sync..Arc$LT$std..thread..Packet$LT$$LP$$RP$$GT$$GT$$GT$17ha058be337863582dE
.Ltmp260:
.LBB10_31:
	.cv_loc	76 18 515 0
	nop
	addq	$40, %rsp
	popq	%rbx
	popq	%rdi
	popq	%rsi
	popq	%rbp
	retq
.Ltmp261:
.LBB10_33:
	.cv_loc	76 18 542 0
	movq	-24(%rbp), %rax
	movq	(%rax), %rcx
	callq	_ZN4core3ptr40drop_in_place$LT$std..thread..Thread$GT$17hf8a0d34335fb1b2fE
	testb	$1, %sil
	je	.LBB10_29
.Ltmp262:
.LBB10_28:
	movq	-24(%rbp), %rax
	movq	16(%rax), %rcx
	callq	_ZN4core3ptr129drop_in_place$LT$core..option..Option$LT$alloc..sync..Arc$LT$std..sync..mutex..Mutex$LT$alloc..vec..Vec$LT$u8$GT$$GT$$GT$$GT$$GT$17haf66c382f93ff638E
	testb	$1, %bl
	jne	.LBB10_30
	jmp	.LBB10_31
.Ltmp263:
	.seh_handlerdata
	.section	.text,"xr",one_only,_ZN4core3ops8function6FnOnce40call_once$u7b$$u7b$vtable.shim$u7d$$u7d$17h6d6be17418e5d1d8E
	.seh_endproc
	.def	"?dtor$32@?0?_ZN4core3ops8function6FnOnce40call_once$u7b$$u7b$vtable.shim$u7d$$u7d$17h6d6be17418e5d1d8E@4HA";
	.scl	3;
	.type	32;
	.endef
	.p2align	4, 0x90
"?dtor$32@?0?_ZN4core3ops8function6FnOnce40call_once$u7b$$u7b$vtable.shim$u7d$$u7d$17h6d6be17418e5d1d8E@4HA":
.seh_proc "?dtor$32@?0?_ZN4core3ops8function6FnOnce40call_once$u7b$$u7b$vtable.shim$u7d$$u7d$17h6d6be17418e5d1d8E@4HA"
.LBB10_32:
	movq	%rdx, 16(%rsp)
	pushq	%rbp
	.seh_pushreg %rbp
	pushq	%rsi
	.seh_pushreg %rsi
	pushq	%rdi
	.seh_pushreg %rdi
	pushq	%rbx
	.seh_pushreg %rbx
	subq	$40, %rsp
	.seh_stackalloc 40
	leaq	96(%rdx), %rbp
.Ltmp264:
	.seh_endprologue
	movq	-56(%rbp), %rcx
	movq	-48(%rbp), %rdx
.Ltmp265:
	.cv_loc	93 8 497 0
	callq	_ZN72_$LT$alloc..boxed..Box$LT$T$C$A$GT$$u20$as$u20$core..ops..drop..Drop$GT$4drop17h6741ce1b38ae4f6bE
	movq	-64(%rbp), %rcx
.Ltmp266:
	.cv_loc	76 18 535 0
	movq	$1, 24(%rcx)
	movq	-40(%rbp), %rax
	movq	%rax, 32(%rcx)
	movq	-32(%rbp), %rax
	movq	%rax, 40(%rcx)
	movb	$1, -9(%rbp)
	movb	$0, -10(%rbp)
	movb	$0, -11(%rbp)
	addq	$40, %rsp
	popq	%rbx
	popq	%rdi
	popq	%rsi
	popq	%rbp
	retq
.Ltmp267:
.Lfunc_end10:
	.seh_handlerdata
	.section	.text,"xr",one_only,_ZN4core3ops8function6FnOnce40call_once$u7b$$u7b$vtable.shim$u7d$$u7d$17h6d6be17418e5d1d8E
	.seh_endproc
	.section	.xdata,"dr",associative,_ZN4core3ops8function6FnOnce40call_once$u7b$$u7b$vtable.shim$u7d$$u7d$17h6d6be17418e5d1d8E
	.p2align	2, 0x0
$cppxdata$_ZN4core3ops8function6FnOnce40call_once$u7b$$u7b$vtable.shim$u7d$$u7d$17h6d6be17418e5d1d8E:
	.long	429065506
	.long	8
	.long	($stateUnwindMap$_ZN4core3ops8function6FnOnce40call_once$u7b$$u7b$vtable.shim$u7d$$u7d$17h6d6be17418e5d1d8E)@IMGREL
	.long	3
	.long	($tryMap$_ZN4core3ops8function6FnOnce40call_once$u7b$$u7b$vtable.shim$u7d$$u7d$17h6d6be17418e5d1d8E)@IMGREL
	.long	14
	.long	($ip2state$_ZN4core3ops8function6FnOnce40call_once$u7b$$u7b$vtable.shim$u7d$$u7d$17h6d6be17418e5d1d8E)@IMGREL
	.long	88
	.long	0
	.long	1
$stateUnwindMap$_ZN4core3ops8function6FnOnce40call_once$u7b$$u7b$vtable.shim$u7d$$u7d$17h6d6be17418e5d1d8E:
	.long	-1
	.long	"?dtor$26@?0?_ZN4core3ops8function6FnOnce40call_once$u7b$$u7b$vtable.shim$u7d$$u7d$17h6d6be17418e5d1d8E@4HA"@IMGREL
	.long	0
	.long	"?dtor$32@?0?_ZN4core3ops8function6FnOnce40call_once$u7b$$u7b$vtable.shim$u7d$$u7d$17h6d6be17418e5d1d8E@4HA"@IMGREL
	.long	0
	.long	0
	.long	0
	.long	0
	.long	3
	.long	0
	.long	3
	.long	0
	.long	3
	.long	0
	.long	3
	.long	0
$tryMap$_ZN4core3ops8function6FnOnce40call_once$u7b$$u7b$vtable.shim$u7d$$u7d$17h6d6be17418e5d1d8E:
	.long	2
	.long	2
	.long	7
	.long	2
	.long	($handlerMap$0$_ZN4core3ops8function6FnOnce40call_once$u7b$$u7b$vtable.shim$u7d$$u7d$17h6d6be17418e5d1d8E)@IMGREL
	.long	4
	.long	4
	.long	5
	.long	1
	.long	($handlerMap$1$_ZN4core3ops8function6FnOnce40call_once$u7b$$u7b$vtable.shim$u7d$$u7d$17h6d6be17418e5d1d8E)@IMGREL
	.long	6
	.long	6
	.long	7
	.long	1
	.long	($handlerMap$2$_ZN4core3ops8function6FnOnce40call_once$u7b$$u7b$vtable.shim$u7d$$u7d$17h6d6be17418e5d1d8E)@IMGREL
$handlerMap$0$_ZN4core3ops8function6FnOnce40call_once$u7b$$u7b$vtable.shim$u7d$$u7d$17h6d6be17418e5d1d8E:
	.long	8
	.long	__rust_panic_type_info@IMGREL
	.long	96
	.long	"?catch$12@?0?_ZN4core3ops8function6FnOnce40call_once$u7b$$u7b$vtable.shim$u7d$$u7d$17h6d6be17418e5d1d8E@4HA"@IMGREL
	.long	88
	.long	64
	.long	0
	.long	0
	.long	"?catch$15@?0?_ZN4core3ops8function6FnOnce40call_once$u7b$$u7b$vtable.shim$u7d$$u7d$17h6d6be17418e5d1d8E@4HA"@IMGREL
	.long	88
$handlerMap$1$_ZN4core3ops8function6FnOnce40call_once$u7b$$u7b$vtable.shim$u7d$$u7d$17h6d6be17418e5d1d8E:
	.long	64
	.long	0
	.long	0
	.long	"?catch$11@?0?_ZN4core3ops8function6FnOnce40call_once$u7b$$u7b$vtable.shim$u7d$$u7d$17h6d6be17418e5d1d8E@4HA"@IMGREL
	.long	88
$handlerMap$2$_ZN4core3ops8function6FnOnce40call_once$u7b$$u7b$vtable.shim$u7d$$u7d$17h6d6be17418e5d1d8E:
	.long	64
	.long	0
	.long	0
	.long	"?catch$14@?0?_ZN4core3ops8function6FnOnce40call_once$u7b$$u7b$vtable.shim$u7d$$u7d$17h6d6be17418e5d1d8E@4HA"@IMGREL
	.long	88
$ip2state$_ZN4core3ops8function6FnOnce40call_once$u7b$$u7b$vtable.shim$u7d$$u7d$17h6d6be17418e5d1d8E:
	.long	.Lfunc_begin10@IMGREL
	.long	-1
	.long	.Ltmp180@IMGREL+1
	.long	0
	.long	.Ltmp190@IMGREL+1
	.long	2
	.long	.Ltmp196@IMGREL+1
	.long	1
	.long	.Ltmp198@IMGREL+1
	.long	0
	.long	.Ltmp199@IMGREL+1
	.long	-1
	.long	"?catch$11@?0?_ZN4core3ops8function6FnOnce40call_once$u7b$$u7b$vtable.shim$u7d$$u7d$17h6d6be17418e5d1d8E@4HA"@IMGREL
	.long	5
	.long	"?catch$12@?0?_ZN4core3ops8function6FnOnce40call_once$u7b$$u7b$vtable.shim$u7d$$u7d$17h6d6be17418e5d1d8E@4HA"@IMGREL
	.long	3
	.long	.Ltmp194@IMGREL+1
	.long	4
	.long	.Ltmp195@IMGREL+1
	.long	3
	.long	"?catch$14@?0?_ZN4core3ops8function6FnOnce40call_once$u7b$$u7b$vtable.shim$u7d$$u7d$17h6d6be17418e5d1d8E@4HA"@IMGREL
	.long	7
	.long	"?catch$15@?0?_ZN4core3ops8function6FnOnce40call_once$u7b$$u7b$vtable.shim$u7d$$u7d$17h6d6be17418e5d1d8E@4HA"@IMGREL
	.long	3
	.long	.Ltmp192@IMGREL+1
	.long	6
	.long	.Ltmp193@IMGREL+1
	.long	3
	.section	.text,"xr",one_only,_ZN4core3ops8function6FnOnce40call_once$u7b$$u7b$vtable.shim$u7d$$u7d$17h6d6be17418e5d1d8E

	.def	_ZN4core3ops8function6FnOnce40call_once$u7b$$u7b$vtable.shim$u7d$$u7d$17hcd7722ecf0543137E;
	.scl	3;
	.type	32;
	.endef
	.section	.text,"xr",one_only,_ZN4core3ops8function6FnOnce40call_once$u7b$$u7b$vtable.shim$u7d$$u7d$17hcd7722ecf0543137E
	.p2align	4, 0x90
_ZN4core3ops8function6FnOnce40call_once$u7b$$u7b$vtable.shim$u7d$$u7d$17hcd7722ecf0543137E:
.Lfunc_begin11:
	.cv_func_id 107
	.cv_loc	107 5 250 0
.seh_proc _ZN4core3ops8function6FnOnce40call_once$u7b$$u7b$vtable.shim$u7d$$u7d$17hcd7722ecf0543137E
	subq	$40, %rsp
	.seh_stackalloc 40
	.seh_endprologue
.Ltmp268:
	movq	(%rcx), %rcx
.Ltmp269:
	.cv_inline_site_id 108 within 107 inlined_at 5 250 0
	.cv_inline_site_id 109 within 108 inlined_at 5 250 0
	.cv_loc	109 14 166 0
	callq	_ZN3std10sys_common9backtrace28__rust_begin_short_backtrace17hddef8c0047251968E
.Ltmp270:
	.cv_loc	107 5 250 0
	xorl	%eax, %eax
	addq	$40, %rsp
	retq
.Ltmp271:
.Lfunc_end11:
	.seh_endproc

	.def	_ZN4core3ptr103drop_in_place$LT$core..option..Option$LT$alloc..sync..Arc$LT$std..thread..scoped..ScopeData$GT$$GT$$GT$17h63658dc606daf782E;
	.scl	3;
	.type	32;
	.endef
	.section	.text,"xr",one_only,_ZN4core3ptr103drop_in_place$LT$core..option..Option$LT$alloc..sync..Arc$LT$std..thread..scoped..ScopeData$GT$$GT$$GT$17h63658dc606daf782E
	.p2align	4, 0x90
_ZN4core3ptr103drop_in_place$LT$core..option..Option$LT$alloc..sync..Arc$LT$std..thread..scoped..ScopeData$GT$$GT$$GT$17h63658dc606daf782E:
.Lfunc_begin12:
	.cv_func_id 110
	.cv_loc	110 8 497 0
	testq	%rcx, %rcx
	je	.LBB12_2
.Ltmp272:
	.cv_inline_site_id 111 within 110 inlined_at 8 497 0
	.cv_inline_site_id 112 within 111 inlined_at 8 497 0
	.cv_inline_site_id 113 within 112 inlined_at 19 1862 0
	.cv_inline_site_id 114 within 113 inlined_at 3 2540 0
	.cv_loc	114 3 3205 0
	lock		decq	(%rcx)
.Ltmp273:
	.cv_loc	112 19 1862 0
	jne	.LBB12_2
.Ltmp274:
	.cv_inline_site_id 115 within 112 inlined_at 19 66 0
	.cv_loc	115 3 3496 0
	#MEMBARRIER
	.cv_loc	112 19 1897 0
	jmp	_ZN5alloc4sync12Arc$LT$T$GT$9drop_slow17hc17ef524d2429d0bE
.Ltmp275:
.LBB12_2:
	.cv_loc	110 8 497 0
	retq
.Ltmp276:
.Lfunc_end12:

	.def	_ZN4core3ptr107drop_in_place$LT$$RF$mut$u20$std..io..Write..write_fmt..Adapter$LT$std..sys..windows..stdio..Stderr$GT$$GT$17h75a6852121bdb97aE;
	.scl	3;
	.type	32;
	.endef
	.section	.text,"xr",one_only,_ZN4core3ptr107drop_in_place$LT$$RF$mut$u20$std..io..Write..write_fmt..Adapter$LT$std..sys..windows..stdio..Stderr$GT$$GT$17h75a6852121bdb97aE
	.p2align	4, 0x90
_ZN4core3ptr107drop_in_place$LT$$RF$mut$u20$std..io..Write..write_fmt..Adapter$LT$std..sys..windows..stdio..Stderr$GT$$GT$17h75a6852121bdb97aE:
.Lfunc_begin13:
	.cv_func_id 116
	.cv_loc	116 8 497 0
	retq
.Ltmp277:
.Lfunc_end13:

	.def	_ZN4core3ptr129drop_in_place$LT$core..option..Option$LT$alloc..sync..Arc$LT$std..sync..mutex..Mutex$LT$alloc..vec..Vec$LT$u8$GT$$GT$$GT$$GT$$GT$17haf66c382f93ff638E;
	.scl	3;
	.type	32;
	.endef
	.section	.text,"xr",one_only,_ZN4core3ptr129drop_in_place$LT$core..option..Option$LT$alloc..sync..Arc$LT$std..sync..mutex..Mutex$LT$alloc..vec..Vec$LT$u8$GT$$GT$$GT$$GT$$GT$17haf66c382f93ff638E
	.p2align	4, 0x90
_ZN4core3ptr129drop_in_place$LT$core..option..Option$LT$alloc..sync..Arc$LT$std..sync..mutex..Mutex$LT$alloc..vec..Vec$LT$u8$GT$$GT$$GT$$GT$$GT$17haf66c382f93ff638E:
.Lfunc_begin14:
	.cv_func_id 117
	.cv_loc	117 8 497 0
	testq	%rcx, %rcx
	je	.LBB14_2
.Ltmp278:
	.cv_inline_site_id 118 within 117 inlined_at 8 497 0
	.cv_inline_site_id 119 within 118 inlined_at 8 497 0
	.cv_inline_site_id 120 within 119 inlined_at 19 1862 0
	.cv_inline_site_id 121 within 120 inlined_at 3 2540 0
	.cv_loc	121 3 3205 0
	lock		decq	(%rcx)
.Ltmp279:
	.cv_loc	119 19 1862 0
	jne	.LBB14_2
.Ltmp280:
	.cv_inline_site_id 122 within 119 inlined_at 19 66 0
	.cv_loc	122 3 3496 0
	#MEMBARRIER
	.cv_loc	119 19 1897 0
	jmp	_ZN5alloc4sync12Arc$LT$T$GT$9drop_slow17h35c08c6223537f27E
.Ltmp281:
.LBB14_2:
	.cv_loc	117 8 497 0
	retq
.Ltmp282:
.Lfunc_end14:

	.def	_ZN4core3ptr130drop_in_place$LT$core..result..Result$LT$$LP$$RP$$C$alloc..boxed..Box$LT$dyn$u20$core..any..Any$u2b$core..marker..Send$GT$$GT$$GT$17h89b4a814ad37826eE;
	.scl	3;
	.type	32;
	.endef
	.section	.text,"xr",one_only,_ZN4core3ptr130drop_in_place$LT$core..result..Result$LT$$LP$$RP$$C$alloc..boxed..Box$LT$dyn$u20$core..any..Any$u2b$core..marker..Send$GT$$GT$$GT$17h89b4a814ad37826eE
	.p2align	4, 0x90
_ZN4core3ptr130drop_in_place$LT$core..result..Result$LT$$LP$$RP$$C$alloc..boxed..Box$LT$dyn$u20$core..any..Any$u2b$core..marker..Send$GT$$GT$$GT$17h89b4a814ad37826eE:
.Lfunc_begin15:
	.cv_func_id 123
	.cv_loc	123 8 497 0
.seh_proc _ZN4core3ptr130drop_in_place$LT$core..result..Result$LT$$LP$$RP$$C$alloc..boxed..Box$LT$dyn$u20$core..any..Any$u2b$core..marker..Send$GT$$GT$$GT$17h89b4a814ad37826eE
	.seh_handler __CxxFrameHandler3, @unwind, @except
	pushq	%rbp
	.seh_pushreg %rbp
	subq	$64, %rsp
	.seh_stackalloc 64
	leaq	64(%rsp), %rbp
	.seh_setframe %rbp, 64
	.seh_endprologue
.Ltmp285:
	movq	$-2, -8(%rbp)
	testq	%rcx, %rcx
	je	.LBB15_3
.Ltmp286:
	.cv_inline_site_id 124 within 123 inlined_at 8 497 0
	.cv_loc	124 8 497 0
.Ltmp283:
	movq	%rcx, -16(%rbp)
	movq	%rdx, -24(%rbp)
.Ltmp287:
	callq	*(%rdx)
.Ltmp284:
.Ltmp288:
	.cv_inline_site_id 125 within 124 inlined_at 8 497 0
	.cv_inline_site_id 126 within 125 inlined_at 11 1221 0
	.cv_inline_site_id 127 within 126 inlined_at 12 199 0
	.cv_loc	127 10 394 0
	movq	-24(%rbp), %rax
.Ltmp289:
	movq	8(%rax), %rdx
.Ltmp290:
	.cv_inline_site_id 128 within 125 inlined_at 11 1222 0
	.cv_loc	128 13 255 0
	testq	%rdx, %rdx
	movq	-16(%rbp), %rcx
	je	.LBB15_3
.Ltmp291:
	.cv_inline_site_id 129 within 128 inlined_at 13 258 0
	.cv_loc	129 13 121 0
	movq	16(%rax), %r8
.Ltmp292:
	addq	$64, %rsp
	popq	%rbp
	jmp	__rust_dealloc
.Ltmp293:
.LBB15_3:
	.cv_loc	123 8 497 0
	nop
	addq	$64, %rsp
	popq	%rbp
	retq
	.seh_handlerdata
	.long	($cppxdata$_ZN4core3ptr130drop_in_place$LT$core..result..Result$LT$$LP$$RP$$C$alloc..boxed..Box$LT$dyn$u20$core..any..Any$u2b$core..marker..Send$GT$$GT$$GT$17h89b4a814ad37826eE)@IMGREL
	.section	.text,"xr",one_only,_ZN4core3ptr130drop_in_place$LT$core..result..Result$LT$$LP$$RP$$C$alloc..boxed..Box$LT$dyn$u20$core..any..Any$u2b$core..marker..Send$GT$$GT$$GT$17h89b4a814ad37826eE
	.seh_endproc
	.def	"?dtor$4@?0?_ZN4core3ptr130drop_in_place$LT$core..result..Result$LT$$LP$$RP$$C$alloc..boxed..Box$LT$dyn$u20$core..any..Any$u2b$core..marker..Send$GT$$GT$$GT$17h89b4a814ad37826eE@4HA";
	.scl	3;
	.type	32;
	.endef
	.p2align	4, 0x90
"?dtor$4@?0?_ZN4core3ptr130drop_in_place$LT$core..result..Result$LT$$LP$$RP$$C$alloc..boxed..Box$LT$dyn$u20$core..any..Any$u2b$core..marker..Send$GT$$GT$$GT$17h89b4a814ad37826eE@4HA":
.seh_proc "?dtor$4@?0?_ZN4core3ptr130drop_in_place$LT$core..result..Result$LT$$LP$$RP$$C$alloc..boxed..Box$LT$dyn$u20$core..any..Any$u2b$core..marker..Send$GT$$GT$$GT$17h89b4a814ad37826eE@4HA"
.LBB15_4:
	movq	%rdx, 16(%rsp)
	pushq	%rbp
	.seh_pushreg %rbp
	subq	$32, %rsp
	.seh_stackalloc 32
	leaq	64(%rdx), %rbp
	.seh_endprologue
	movq	-16(%rbp), %rcx
	movq	-24(%rbp), %rdx
.Ltmp294:
	.cv_loc	124 8 497 0
	callq	_ZN72_$LT$alloc..boxed..Box$LT$T$C$A$GT$$u20$as$u20$core..ops..drop..Drop$GT$4drop17h6741ce1b38ae4f6bE
	nop
	addq	$32, %rsp
	popq	%rbp
	retq
.Ltmp295:
.Lfunc_end15:
	.seh_handlerdata
	.section	.text,"xr",one_only,_ZN4core3ptr130drop_in_place$LT$core..result..Result$LT$$LP$$RP$$C$alloc..boxed..Box$LT$dyn$u20$core..any..Any$u2b$core..marker..Send$GT$$GT$$GT$17h89b4a814ad37826eE
	.seh_endproc
	.section	.xdata,"dr",associative,_ZN4core3ptr130drop_in_place$LT$core..result..Result$LT$$LP$$RP$$C$alloc..boxed..Box$LT$dyn$u20$core..any..Any$u2b$core..marker..Send$GT$$GT$$GT$17h89b4a814ad37826eE
	.p2align	2, 0x0
$cppxdata$_ZN4core3ptr130drop_in_place$LT$core..result..Result$LT$$LP$$RP$$C$alloc..boxed..Box$LT$dyn$u20$core..any..Any$u2b$core..marker..Send$GT$$GT$$GT$17h89b4a814ad37826eE:
	.long	429065506
	.long	1
	.long	($stateUnwindMap$_ZN4core3ptr130drop_in_place$LT$core..result..Result$LT$$LP$$RP$$C$alloc..boxed..Box$LT$dyn$u20$core..any..Any$u2b$core..marker..Send$GT$$GT$$GT$17h89b4a814ad37826eE)@IMGREL
	.long	0
	.long	0
	.long	3
	.long	($ip2state$_ZN4core3ptr130drop_in_place$LT$core..result..Result$LT$$LP$$RP$$C$alloc..boxed..Box$LT$dyn$u20$core..any..Any$u2b$core..marker..Send$GT$$GT$$GT$17h89b4a814ad37826eE)@IMGREL
	.long	56
	.long	0
	.long	1
$stateUnwindMap$_ZN4core3ptr130drop_in_place$LT$core..result..Result$LT$$LP$$RP$$C$alloc..boxed..Box$LT$dyn$u20$core..any..Any$u2b$core..marker..Send$GT$$GT$$GT$17h89b4a814ad37826eE:
	.long	-1
	.long	"?dtor$4@?0?_ZN4core3ptr130drop_in_place$LT$core..result..Result$LT$$LP$$RP$$C$alloc..boxed..Box$LT$dyn$u20$core..any..Any$u2b$core..marker..Send$GT$$GT$$GT$17h89b4a814ad37826eE@4HA"@IMGREL
$ip2state$_ZN4core3ptr130drop_in_place$LT$core..result..Result$LT$$LP$$RP$$C$alloc..boxed..Box$LT$dyn$u20$core..any..Any$u2b$core..marker..Send$GT$$GT$$GT$17h89b4a814ad37826eE:
	.long	.Lfunc_begin15@IMGREL
	.long	-1
	.long	.Ltmp283@IMGREL+1
	.long	0
	.long	.Ltmp284@IMGREL+1
	.long	-1
	.section	.text,"xr",one_only,_ZN4core3ptr130drop_in_place$LT$core..result..Result$LT$$LP$$RP$$C$alloc..boxed..Box$LT$dyn$u20$core..any..Any$u2b$core..marker..Send$GT$$GT$$GT$17h89b4a814ad37826eE

	.def	_ZN4core3ptr156drop_in_place$LT$std..thread..Builder..spawn_unchecked_$LT$concurrent..consumer..$u7b$$u7b$closure$u7d$$u7d$$C$$LP$$RP$$GT$..$u7b$$u7b$closure$u7d$$u7d$$GT$17h4c86d115223721efE;
	.scl	3;
	.type	32;
	.endef
	.section	.text,"xr",one_only,_ZN4core3ptr156drop_in_place$LT$std..thread..Builder..spawn_unchecked_$LT$concurrent..consumer..$u7b$$u7b$closure$u7d$$u7d$$C$$LP$$RP$$GT$..$u7b$$u7b$closure$u7d$$u7d$$GT$17h4c86d115223721efE
	.p2align	4, 0x90
_ZN4core3ptr156drop_in_place$LT$std..thread..Builder..spawn_unchecked_$LT$concurrent..consumer..$u7b$$u7b$closure$u7d$$u7d$$C$$LP$$RP$$GT$..$u7b$$u7b$closure$u7d$$u7d$$GT$17h4c86d115223721efE:
.Lfunc_begin16:
	.cv_func_id 130
	.cv_loc	130 8 497 0
.seh_proc _ZN4core3ptr156drop_in_place$LT$std..thread..Builder..spawn_unchecked_$LT$concurrent..consumer..$u7b$$u7b$closure$u7d$$u7d$$C$$LP$$RP$$GT$..$u7b$$u7b$closure$u7d$$u7d$$GT$17h4c86d115223721efE
	pushq	%rsi
	.seh_pushreg %rsi
	subq	$32, %rsp
	.seh_stackalloc 32
	.seh_endprologue
	movq	%rcx, %rsi
.Ltmp296:
	movq	(%rcx), %rcx
.Ltmp297:
	.cv_inline_site_id 131 within 130 inlined_at 8 497 0
	.cv_inline_site_id 132 within 131 inlined_at 8 497 0
	.cv_inline_site_id 133 within 132 inlined_at 8 497 0
	.cv_inline_site_id 134 within 133 inlined_at 8 497 0
	.cv_inline_site_id 135 within 134 inlined_at 19 1862 0
	.cv_inline_site_id 136 within 135 inlined_at 3 2540 0
	.cv_loc	136 3 3205 0
	lock		decq	(%rcx)
.Ltmp298:
	.cv_loc	134 19 1862 0
	jne	.LBB16_2
.Ltmp299:
	.cv_inline_site_id 137 within 134 inlined_at 19 66 0
	.cv_loc	137 3 3496 0
	#MEMBARRIER
	.cv_loc	134 19 1897 0
	callq	_ZN5alloc4sync12Arc$LT$T$GT$9drop_slow17hf6180cbef32ec201E
.Ltmp300:
.LBB16_2:
	.cv_loc	130 8 497 0
	movq	16(%rsi), %rcx
.Ltmp301:
	.cv_inline_site_id 138 within 130 inlined_at 8 497 0
	.cv_loc	138 8 497 0
	testq	%rcx, %rcx
	je	.LBB16_5
.Ltmp302:
	.cv_inline_site_id 139 within 138 inlined_at 8 497 0
	.cv_inline_site_id 140 within 139 inlined_at 8 497 0
	.cv_inline_site_id 141 within 140 inlined_at 19 1862 0
	.cv_inline_site_id 142 within 141 inlined_at 3 2540 0
	.cv_loc	142 3 3205 0
	lock		decq	(%rcx)
.Ltmp303:
	.cv_loc	140 19 1862 0
	jne	.LBB16_5
.Ltmp304:
	.cv_inline_site_id 143 within 140 inlined_at 19 66 0
	.cv_loc	143 3 3496 0
	#MEMBARRIER
	.cv_loc	140 19 1897 0
	callq	_ZN5alloc4sync12Arc$LT$T$GT$9drop_slow17h35c08c6223537f27E
.Ltmp305:
.LBB16_5:
	.cv_loc	130 8 497 0
	movq	8(%rsi), %rcx
.Ltmp306:
	.cv_inline_site_id 144 within 130 inlined_at 8 497 0
	.cv_inline_site_id 145 within 144 inlined_at 8 497 0
	.cv_inline_site_id 146 within 145 inlined_at 19 1862 0
	.cv_inline_site_id 147 within 146 inlined_at 3 2540 0
	.cv_loc	147 3 3205 0
	lock		decq	(%rcx)
.Ltmp307:
	.cv_loc	145 19 1862 0
	jne	.LBB16_6
.Ltmp308:
	.cv_inline_site_id 148 within 145 inlined_at 19 66 0
	.cv_loc	148 3 3496 0
	#MEMBARRIER
	.cv_loc	145 19 1897 0
	addq	$32, %rsp
	popq	%rsi
.Ltmp309:
	jmp	_ZN5alloc4sync12Arc$LT$T$GT$9drop_slow17h12dcb8e2605acdf7E
.Ltmp310:
.LBB16_6:
	.cv_loc	130 8 497 0
	nop
	addq	$32, %rsp
	popq	%rsi
.Ltmp311:
	retq
.Ltmp312:
.Lfunc_end16:
	.seh_endproc

	.def	_ZN4core3ptr188drop_in_place$LT$core..cell..UnsafeCell$LT$core..option..Option$LT$core..result..Result$LT$$LP$$RP$$C$alloc..boxed..Box$LT$dyn$u20$core..any..Any$u2b$core..marker..Send$GT$$GT$$GT$$GT$$GT$17hefcfb4562b93c7cdE;
	.scl	3;
	.type	32;
	.endef
	.section	.text,"xr",one_only,_ZN4core3ptr188drop_in_place$LT$core..cell..UnsafeCell$LT$core..option..Option$LT$core..result..Result$LT$$LP$$RP$$C$alloc..boxed..Box$LT$dyn$u20$core..any..Any$u2b$core..marker..Send$GT$$GT$$GT$$GT$$GT$17hefcfb4562b93c7cdE
	.p2align	4, 0x90
_ZN4core3ptr188drop_in_place$LT$core..cell..UnsafeCell$LT$core..option..Option$LT$core..result..Result$LT$$LP$$RP$$C$alloc..boxed..Box$LT$dyn$u20$core..any..Any$u2b$core..marker..Send$GT$$GT$$GT$$GT$$GT$17hefcfb4562b93c7cdE:
.Lfunc_begin17:
	.cv_func_id 149
	.cv_loc	149 8 497 0
.seh_proc _ZN4core3ptr188drop_in_place$LT$core..cell..UnsafeCell$LT$core..option..Option$LT$core..result..Result$LT$$LP$$RP$$C$alloc..boxed..Box$LT$dyn$u20$core..any..Any$u2b$core..marker..Send$GT$$GT$$GT$$GT$$GT$17hefcfb4562b93c7cdE
	.seh_handler __CxxFrameHandler3, @unwind, @except
	pushq	%rbp
	.seh_pushreg %rbp
	subq	$64, %rsp
	.seh_stackalloc 64
	leaq	64(%rsp), %rbp
	.seh_setframe %rbp, 64
	.seh_endprologue
.Ltmp315:
	.cv_inline_site_id 150 within 149 inlined_at 8 497 0
	.cv_loc	150 8 497 0
	movq	$-2, -8(%rbp)
.Ltmp316:
	cmpq	$0, (%rcx)
	je	.LBB17_4
.Ltmp317:
	movq	8(%rcx), %rax
.Ltmp318:
	.cv_inline_site_id 151 within 150 inlined_at 8 497 0
	.cv_loc	151 8 497 0
	testq	%rax, %rax
	je	.LBB17_4
.Ltmp319:
	.cv_loc	150 8 497 0
	movq	16(%rcx), %rdx
.Ltmp320:
	.cv_inline_site_id 152 within 151 inlined_at 8 497 0
	.cv_loc	152 8 497 0
.Ltmp313:
	movq	%rax, -24(%rbp)
.Ltmp321:
	movq	%rax, %rcx
.Ltmp322:
	movq	%rdx, -16(%rbp)
	callq	*(%rdx)
.Ltmp314:
.Ltmp323:
	.cv_inline_site_id 153 within 152 inlined_at 8 497 0
	.cv_inline_site_id 154 within 153 inlined_at 11 1221 0
	.cv_inline_site_id 155 within 154 inlined_at 12 199 0
	.cv_loc	155 10 394 0
	movq	-16(%rbp), %rax
.Ltmp324:
	movq	8(%rax), %rdx
.Ltmp325:
	.cv_inline_site_id 156 within 153 inlined_at 11 1222 0
	.cv_loc	156 13 255 0
	testq	%rdx, %rdx
	movq	-24(%rbp), %rcx
	je	.LBB17_4
.Ltmp326:
	.cv_inline_site_id 157 within 156 inlined_at 13 258 0
	.cv_loc	157 13 121 0
	movq	16(%rax), %r8
.Ltmp327:
	addq	$64, %rsp
	popq	%rbp
	jmp	__rust_dealloc
.Ltmp328:
.LBB17_4:
	.cv_loc	149 8 497 0
	nop
	addq	$64, %rsp
	popq	%rbp
	retq
.Ltmp329:
	.seh_handlerdata
	.long	($cppxdata$_ZN4core3ptr188drop_in_place$LT$core..cell..UnsafeCell$LT$core..option..Option$LT$core..result..Result$LT$$LP$$RP$$C$alloc..boxed..Box$LT$dyn$u20$core..any..Any$u2b$core..marker..Send$GT$$GT$$GT$$GT$$GT$17hefcfb4562b93c7cdE)@IMGREL
	.section	.text,"xr",one_only,_ZN4core3ptr188drop_in_place$LT$core..cell..UnsafeCell$LT$core..option..Option$LT$core..result..Result$LT$$LP$$RP$$C$alloc..boxed..Box$LT$dyn$u20$core..any..Any$u2b$core..marker..Send$GT$$GT$$GT$$GT$$GT$17hefcfb4562b93c7cdE
	.seh_endproc
	.def	"?dtor$5@?0?_ZN4core3ptr188drop_in_place$LT$core..cell..UnsafeCell$LT$core..option..Option$LT$core..result..Result$LT$$LP$$RP$$C$alloc..boxed..Box$LT$dyn$u20$core..any..Any$u2b$core..marker..Send$GT$$GT$$GT$$GT$$GT$17hefcfb4562b93c7cdE@4HA";
	.scl	3;
	.type	32;
	.endef
	.p2align	4, 0x90
"?dtor$5@?0?_ZN4core3ptr188drop_in_place$LT$core..cell..UnsafeCell$LT$core..option..Option$LT$core..result..Result$LT$$LP$$RP$$C$alloc..boxed..Box$LT$dyn$u20$core..any..Any$u2b$core..marker..Send$GT$$GT$$GT$$GT$$GT$17hefcfb4562b93c7cdE@4HA":
.seh_proc "?dtor$5@?0?_ZN4core3ptr188drop_in_place$LT$core..cell..UnsafeCell$LT$core..option..Option$LT$core..result..Result$LT$$LP$$RP$$C$alloc..boxed..Box$LT$dyn$u20$core..any..Any$u2b$core..marker..Send$GT$$GT$$GT$$GT$$GT$17hefcfb4562b93c7cdE@4HA"
.LBB17_5:
	movq	%rdx, 16(%rsp)
	pushq	%rbp
	.seh_pushreg %rbp
	subq	$32, %rsp
	.seh_stackalloc 32
	leaq	64(%rdx), %rbp
	.seh_endprologue
	movq	-24(%rbp), %rcx
	movq	-16(%rbp), %rdx
.Ltmp330:
	.cv_loc	152 8 497 0
	callq	_ZN72_$LT$alloc..boxed..Box$LT$T$C$A$GT$$u20$as$u20$core..ops..drop..Drop$GT$4drop17h6741ce1b38ae4f6bE
	nop
	addq	$32, %rsp
	popq	%rbp
	retq
.Ltmp331:
.Lfunc_end17:
	.seh_handlerdata
	.section	.text,"xr",one_only,_ZN4core3ptr188drop_in_place$LT$core..cell..UnsafeCell$LT$core..option..Option$LT$core..result..Result$LT$$LP$$RP$$C$alloc..boxed..Box$LT$dyn$u20$core..any..Any$u2b$core..marker..Send$GT$$GT$$GT$$GT$$GT$17hefcfb4562b93c7cdE
	.seh_endproc
	.section	.xdata,"dr",associative,_ZN4core3ptr188drop_in_place$LT$core..cell..UnsafeCell$LT$core..option..Option$LT$core..result..Result$LT$$LP$$RP$$C$alloc..boxed..Box$LT$dyn$u20$core..any..Any$u2b$core..marker..Send$GT$$GT$$GT$$GT$$GT$17hefcfb4562b93c7cdE
	.p2align	2, 0x0
$cppxdata$_ZN4core3ptr188drop_in_place$LT$core..cell..UnsafeCell$LT$core..option..Option$LT$core..result..Result$LT$$LP$$RP$$C$alloc..boxed..Box$LT$dyn$u20$core..any..Any$u2b$core..marker..Send$GT$$GT$$GT$$GT$$GT$17hefcfb4562b93c7cdE:
	.long	429065506
	.long	1
	.long	($stateUnwindMap$_ZN4core3ptr188drop_in_place$LT$core..cell..UnsafeCell$LT$core..option..Option$LT$core..result..Result$LT$$LP$$RP$$C$alloc..boxed..Box$LT$dyn$u20$core..any..Any$u2b$core..marker..Send$GT$$GT$$GT$$GT$$GT$17hefcfb4562b93c7cdE)@IMGREL
	.long	0
	.long	0
	.long	3
	.long	($ip2state$_ZN4core3ptr188drop_in_place$LT$core..cell..UnsafeCell$LT$core..option..Option$LT$core..result..Result$LT$$LP$$RP$$C$alloc..boxed..Box$LT$dyn$u20$core..any..Any$u2b$core..marker..Send$GT$$GT$$GT$$GT$$GT$17hefcfb4562b93c7cdE)@IMGREL
	.long	56
	.long	0
	.long	1
$stateUnwindMap$_ZN4core3ptr188drop_in_place$LT$core..cell..UnsafeCell$LT$core..option..Option$LT$core..result..Result$LT$$LP$$RP$$C$alloc..boxed..Box$LT$dyn$u20$core..any..Any$u2b$core..marker..Send$GT$$GT$$GT$$GT$$GT$17hefcfb4562b93c7cdE:
	.long	-1
	.long	"?dtor$5@?0?_ZN4core3ptr188drop_in_place$LT$core..cell..UnsafeCell$LT$core..option..Option$LT$core..result..Result$LT$$LP$$RP$$C$alloc..boxed..Box$LT$dyn$u20$core..any..Any$u2b$core..marker..Send$GT$$GT$$GT$$GT$$GT$17hefcfb4562b93c7cdE@4HA"@IMGREL
$ip2state$_ZN4core3ptr188drop_in_place$LT$core..cell..UnsafeCell$LT$core..option..Option$LT$core..result..Result$LT$$LP$$RP$$C$alloc..boxed..Box$LT$dyn$u20$core..any..Any$u2b$core..marker..Send$GT$$GT$$GT$$GT$$GT$17hefcfb4562b93c7cdE:
	.long	.Lfunc_begin17@IMGREL
	.long	-1
	.long	.Ltmp313@IMGREL+1
	.long	0
	.long	.Ltmp314@IMGREL+1
	.long	-1
	.section	.text,"xr",one_only,_ZN4core3ptr188drop_in_place$LT$core..cell..UnsafeCell$LT$core..option..Option$LT$core..result..Result$LT$$LP$$RP$$C$alloc..boxed..Box$LT$dyn$u20$core..any..Any$u2b$core..marker..Send$GT$$GT$$GT$$GT$$GT$17hefcfb4562b93c7cdE

	.def	_ZN4core3ptr40drop_in_place$LT$std..thread..Thread$GT$17hf8a0d34335fb1b2fE;
	.scl	3;
	.type	32;
	.endef
	.section	.text,"xr",one_only,_ZN4core3ptr40drop_in_place$LT$std..thread..Thread$GT$17hf8a0d34335fb1b2fE
	.p2align	4, 0x90
_ZN4core3ptr40drop_in_place$LT$std..thread..Thread$GT$17hf8a0d34335fb1b2fE:
.Lfunc_begin18:
	.cv_func_id 158
	.cv_inline_site_id 159 within 158 inlined_at 8 497 0
	.cv_inline_site_id 160 within 159 inlined_at 8 497 0
	.cv_inline_site_id 161 within 160 inlined_at 8 497 0
	.cv_inline_site_id 162 within 161 inlined_at 19 1862 0
	.cv_inline_site_id 163 within 162 inlined_at 3 2540 0
	.cv_loc	163 3 3205 0
	lock		decq	(%rcx)
.Ltmp332:
	.cv_loc	161 19 1862 0
	jne	.LBB18_1
.Ltmp333:
	.cv_inline_site_id 164 within 161 inlined_at 19 66 0
	.cv_loc	164 3 3496 0
	#MEMBARRIER
	.cv_loc	161 19 1897 0
	jmp	_ZN5alloc4sync12Arc$LT$T$GT$9drop_slow17hf6180cbef32ec201E
.Ltmp334:
.LBB18_1:
	.cv_loc	158 8 497 0
	retq
.Ltmp335:
.Lfunc_end18:

	.def	_ZN4core3ptr42drop_in_place$LT$std..io..error..Error$GT$17hea0d4fdae7d1d80dE;
	.scl	3;
	.type	32;
	.endef
	.section	.text,"xr",one_only,_ZN4core3ptr42drop_in_place$LT$std..io..error..Error$GT$17hea0d4fdae7d1d80dE
	.p2align	4, 0x90
_ZN4core3ptr42drop_in_place$LT$std..io..error..Error$GT$17hea0d4fdae7d1d80dE:
.Lfunc_begin19:
	.cv_func_id 165
	.cv_loc	165 8 497 0
.seh_proc _ZN4core3ptr42drop_in_place$LT$std..io..error..Error$GT$17hea0d4fdae7d1d80dE
	.seh_handler __CxxFrameHandler3, @unwind, @except
	pushq	%rbp
	.seh_pushreg %rbp
	subq	$64, %rsp
	.seh_stackalloc 64
	leaq	64(%rsp), %rbp
	.seh_setframe %rbp, 64
	.seh_endprologue
.Ltmp338:
	movq	$-2, -8(%rbp)
	movq	(%rcx), %rax
.Ltmp339:
	.cv_inline_site_id 166 within 165 inlined_at 8 497 0
	.cv_inline_site_id 167 within 166 inlined_at 8 497 0
	.cv_inline_site_id 168 within 167 inlined_at 7 236 0
	.cv_loc	168 7 251 0
	movl	%eax, %ecx
.Ltmp340:
	andl	$3, %ecx
	leaq	-2(%rcx), %rdx
	cmpq	$2, %rdx
	jb	.LBB19_6
.Ltmp341:
	testq	%rcx, %rcx
	jne	.LBB19_2
.Ltmp342:
.LBB19_6:
	.cv_loc	165 8 497 0
	addq	$64, %rsp
	popq	%rbp
	retq
.Ltmp343:
.LBB19_2:
	.cv_inline_site_id 169 within 168 inlined_at 7 275 0
	.cv_inline_site_id 170 within 169 inlined_at 9 1280 0
	.cv_inline_site_id 171 within 170 inlined_at 9 1262 0
	.cv_loc	171 9 558 0
	leaq	-1(%rax), %rcx
.Ltmp344:
	movq	%rcx, -32(%rbp)
.Ltmp345:
	.cv_inline_site_id 172 within 167 inlined_at 7 236 0
	.cv_inline_site_id 173 within 172 inlined_at 8 497 0
	.cv_loc	173 8 497 0
	movq	-1(%rax), %rcx
	movq	7(%rax), %rax
.Ltmp346:
	.cv_inline_site_id 174 within 173 inlined_at 8 497 0
	.cv_inline_site_id 175 within 174 inlined_at 8 497 0
	.cv_loc	175 8 497 0
.Ltmp336:
	movq	%rcx, -16(%rbp)
	movq	%rax, -24(%rbp)
.Ltmp347:
	callq	*(%rax)
.Ltmp337:
.Ltmp348:
	.cv_inline_site_id 176 within 175 inlined_at 8 497 0
	.cv_inline_site_id 177 within 176 inlined_at 11 1221 0
	.cv_inline_site_id 178 within 177 inlined_at 12 199 0
	.cv_loc	178 10 394 0
	movq	-24(%rbp), %rax
.Ltmp349:
	movq	8(%rax), %rdx
.Ltmp350:
	.cv_inline_site_id 179 within 176 inlined_at 11 1222 0
	.cv_loc	179 13 255 0
	testq	%rdx, %rdx
	je	.LBB19_5
.Ltmp351:
	.cv_inline_site_id 180 within 179 inlined_at 13 258 0
	.cv_loc	180 13 121 0
	movq	16(%rax), %r8
.Ltmp352:
	movq	-16(%rbp), %rcx
.Ltmp353:
	callq	__rust_dealloc
.Ltmp354:
.LBB19_5:
	.cv_inline_site_id 181 within 173 inlined_at 8 497 0
	.cv_inline_site_id 182 within 181 inlined_at 11 1222 0
	.cv_inline_site_id 183 within 182 inlined_at 13 258 0
	.cv_loc	183 13 121 0
	movl	$24, %edx
	movl	$8, %r8d
	movq	-32(%rbp), %rcx
	addq	$64, %rsp
	popq	%rbp
	jmp	__rust_dealloc
.Ltmp355:
	.seh_handlerdata
	.long	($cppxdata$_ZN4core3ptr42drop_in_place$LT$std..io..error..Error$GT$17hea0d4fdae7d1d80dE)@IMGREL
	.section	.text,"xr",one_only,_ZN4core3ptr42drop_in_place$LT$std..io..error..Error$GT$17hea0d4fdae7d1d80dE
	.seh_endproc
	.def	"?dtor$7@?0?_ZN4core3ptr42drop_in_place$LT$std..io..error..Error$GT$17hea0d4fdae7d1d80dE@4HA";
	.scl	3;
	.type	32;
	.endef
	.p2align	4, 0x90
"?dtor$7@?0?_ZN4core3ptr42drop_in_place$LT$std..io..error..Error$GT$17hea0d4fdae7d1d80dE@4HA":
.seh_proc "?dtor$7@?0?_ZN4core3ptr42drop_in_place$LT$std..io..error..Error$GT$17hea0d4fdae7d1d80dE@4HA"
.LBB19_7:
	movq	%rdx, 16(%rsp)
	pushq	%rbp
	.seh_pushreg %rbp
	subq	$32, %rsp
	.seh_stackalloc 32
	leaq	64(%rdx), %rbp
	.seh_endprologue
	movq	-16(%rbp), %rcx
	movq	-24(%rbp), %rdx
.Ltmp356:
	.cv_loc	175 8 497 0
	callq	_ZN72_$LT$alloc..boxed..Box$LT$T$C$A$GT$$u20$as$u20$core..ops..drop..Drop$GT$4drop17h6741ce1b38ae4f6bE
	movq	-32(%rbp), %rcx
.Ltmp357:
	.cv_loc	173 8 497 0
	callq	_ZN72_$LT$alloc..boxed..Box$LT$T$C$A$GT$$u20$as$u20$core..ops..drop..Drop$GT$4drop17h37c1f7c24bbbad40E
	nop
	addq	$32, %rsp
	popq	%rbp
	retq
.Ltmp358:
.Lfunc_end19:
	.seh_handlerdata
	.section	.text,"xr",one_only,_ZN4core3ptr42drop_in_place$LT$std..io..error..Error$GT$17hea0d4fdae7d1d80dE
	.seh_endproc
	.section	.xdata,"dr",associative,_ZN4core3ptr42drop_in_place$LT$std..io..error..Error$GT$17hea0d4fdae7d1d80dE
	.p2align	2, 0x0
$cppxdata$_ZN4core3ptr42drop_in_place$LT$std..io..error..Error$GT$17hea0d4fdae7d1d80dE:
	.long	429065506
	.long	1
	.long	($stateUnwindMap$_ZN4core3ptr42drop_in_place$LT$std..io..error..Error$GT$17hea0d4fdae7d1d80dE)@IMGREL
	.long	0
	.long	0
	.long	3
	.long	($ip2state$_ZN4core3ptr42drop_in_place$LT$std..io..error..Error$GT$17hea0d4fdae7d1d80dE)@IMGREL
	.long	56
	.long	0
	.long	1
$stateUnwindMap$_ZN4core3ptr42drop_in_place$LT$std..io..error..Error$GT$17hea0d4fdae7d1d80dE:
	.long	-1
	.long	"?dtor$7@?0?_ZN4core3ptr42drop_in_place$LT$std..io..error..Error$GT$17hea0d4fdae7d1d80dE@4HA"@IMGREL
$ip2state$_ZN4core3ptr42drop_in_place$LT$std..io..error..Error$GT$17hea0d4fdae7d1d80dE:
	.long	.Lfunc_begin19@IMGREL
	.long	-1
	.long	.Ltmp336@IMGREL+1
	.long	0
	.long	.Ltmp337@IMGREL+1
	.long	-1
	.section	.text,"xr",one_only,_ZN4core3ptr42drop_in_place$LT$std..io..error..Error$GT$17hea0d4fdae7d1d80dE

	.def	_ZN4core3ptr46drop_in_place$LT$alloc..vec..Vec$LT$u8$GT$$GT$17h3b5c9988cdef32faE;
	.scl	3;
	.type	32;
	.endef
	.section	.text,"xr",one_only,_ZN4core3ptr46drop_in_place$LT$alloc..vec..Vec$LT$u8$GT$$GT$17h3b5c9988cdef32faE
	.p2align	4, 0x90
_ZN4core3ptr46drop_in_place$LT$alloc..vec..Vec$LT$u8$GT$$GT$17h3b5c9988cdef32faE:
.Lfunc_begin20:
	.cv_func_id 184
	.cv_file	24 "/rustc/5680fa18feaa87f3ff04063800aec256c3d4b4be\\library\\alloc\\src\\raw_vec.rs" "C753A7022FCB714D01DAD2776A3EE445EB87FF27" 2
	.cv_inline_site_id 185 within 184 inlined_at 8 497 0
	.cv_inline_site_id 186 within 185 inlined_at 8 497 0
	.cv_inline_site_id 187 within 186 inlined_at 24 484 0
	.cv_loc	187 24 240 0
	testq	%rdx, %rdx
	je	.LBB20_1
.Ltmp359:
	.cv_inline_site_id 188 within 186 inlined_at 24 485 0
	.cv_inline_site_id 189 within 188 inlined_at 13 258 0
	.cv_loc	189 13 121 0
	movl	$1, %r8d
	jmp	__rust_dealloc
.Ltmp360:
.LBB20_1:
	.cv_loc	184 8 497 0
	retq
.Ltmp361:
.Lfunc_end20:

	.def	_ZN4core3ptr48drop_in_place$LT$alloc..ffi..c_str..NulError$GT$17hef9c01c00a16a3dbE;
	.scl	3;
	.type	32;
	.endef
	.section	.text,"xr",one_only,_ZN4core3ptr48drop_in_place$LT$alloc..ffi..c_str..NulError$GT$17hef9c01c00a16a3dbE
	.p2align	4, 0x90
_ZN4core3ptr48drop_in_place$LT$alloc..ffi..c_str..NulError$GT$17hef9c01c00a16a3dbE:
.Lfunc_begin21:
	.cv_func_id 190
	.cv_loc	190 8 497 0
	movq	8(%rcx), %rdx
.Ltmp362:
	.cv_inline_site_id 191 within 190 inlined_at 8 497 0
	.cv_inline_site_id 192 within 191 inlined_at 8 497 0
	.cv_inline_site_id 193 within 192 inlined_at 8 497 0
	.cv_inline_site_id 194 within 193 inlined_at 24 484 0
	.cv_loc	194 24 240 0
	testq	%rdx, %rdx
	je	.LBB21_1
.Ltmp363:
	.cv_loc	190 8 497 0
	movq	(%rcx), %rcx
.Ltmp364:
	.cv_inline_site_id 195 within 193 inlined_at 24 485 0
	.cv_inline_site_id 196 within 195 inlined_at 13 258 0
	.cv_loc	196 13 121 0
	movl	$1, %r8d
	jmp	__rust_dealloc
.Ltmp365:
.LBB21_1:
	.cv_loc	190 8 497 0
	retq
.Ltmp366:
.Lfunc_end21:

	.def	_ZN4core3ptr56drop_in_place$LT$std..thread..Packet$LT$$LP$$RP$$GT$$GT$17h7ce191c5b9525e48E;
	.scl	3;
	.type	32;
	.endef
	.section	.text,"xr",one_only,_ZN4core3ptr56drop_in_place$LT$std..thread..Packet$LT$$LP$$RP$$GT$$GT$17h7ce191c5b9525e48E
	.p2align	4, 0x90
_ZN4core3ptr56drop_in_place$LT$std..thread..Packet$LT$$LP$$RP$$GT$$GT$17h7ce191c5b9525e48E:
.Lfunc_begin22:
	.cv_func_id 197
	.cv_loc	197 8 497 0
.seh_proc _ZN4core3ptr56drop_in_place$LT$std..thread..Packet$LT$$LP$$RP$$GT$$GT$17h7ce191c5b9525e48E
	.seh_handler __CxxFrameHandler3, @unwind, @except
	pushq	%rbp
	.seh_pushreg %rbp
	pushq	%r14
	.seh_pushreg %r14
	pushq	%rsi
	.seh_pushreg %rsi
	pushq	%rdi
	.seh_pushreg %rdi
	pushq	%rbx
	.seh_pushreg %rbx
	subq	$144, %rsp
	.seh_stackalloc 144
	leaq	128(%rsp), %rbp
	.seh_setframe %rbp, 128
	.seh_endprologue
	movq	$-2, (%rbp)
	movq	%rcx, %r14
.Ltmp385:
	.cv_inline_site_id 198 within 197 inlined_at 8 497 0
	.cv_loc	198 18 1402 0
	leaq	8(%rcx), %rax
	movq	%rax, -16(%rbp)
	movq	8(%rcx), %rax
	testq	%rax, %rax
	setne	%bl
	movq	16(%rcx), %rcx
.Ltmp386:
	testq	%rcx, %rcx
	setne	%dil
	testq	%rax, %rax
.Ltmp387:
	movq	%r14, -24(%rbp)
.Ltmp388:
	.cv_inline_site_id 199 within 198 inlined_at 18 1413 0
	.cv_inline_site_id 200 within 199 inlined_at 20 142 0
	.cv_inline_site_id 201 within 200 inlined_at 21 464 0
	.cv_inline_site_id 202 within 201 inlined_at 21 500 0
	.cv_inline_site_id 203 within 202 inlined_at 22 271 0
	.cv_inline_site_id 204 within 203 inlined_at 5 250 0
	.cv_inline_site_id 205 within 204 inlined_at 18 1414 0
	.cv_loc	205 8 497 0
	je	.LBB22_5
.Ltmp389:
	.cv_inline_site_id 206 within 205 inlined_at 8 497 0
	.cv_loc	206 8 497 0
	testq	%rcx, %rcx
	je	.LBB22_5
.Ltmp390:
	.cv_loc	205 8 497 0
	movq	24(%r14), %rax
.Ltmp391:
	.cv_inline_site_id 207 within 206 inlined_at 8 497 0
	.cv_loc	207 8 497 0
.Ltmp367:
	movq	%rcx, -40(%rbp)
	movq	%rax, -32(%rbp)
.Ltmp392:
	callq	*(%rax)
.Ltmp368:
.Ltmp393:
	.cv_inline_site_id 208 within 207 inlined_at 8 497 0
	.cv_inline_site_id 209 within 208 inlined_at 11 1221 0
	.cv_inline_site_id 210 within 209 inlined_at 12 199 0
	.cv_loc	210 10 394 0
	movq	-32(%rbp), %rax
.Ltmp394:
	movq	8(%rax), %rdx
.Ltmp395:
	.cv_inline_site_id 211 within 208 inlined_at 11 1222 0
	.cv_loc	211 13 255 0
	testq	%rdx, %rdx
	movq	-24(%rbp), %r14
	movq	-40(%rbp), %rcx
	je	.LBB22_5
.Ltmp396:
	.cv_inline_site_id 212 within 211 inlined_at 13 258 0
	.cv_loc	212 13 121 0
	movq	16(%rax), %r8
.Ltmp397:
	callq	__rust_dealloc
.Ltmp398:
.LBB22_5:
	.cv_loc	204 18 1414 0
	movq	$0, 8(%r14)
.Ltmp399:
	.cv_loc	198 18 1419 0
	movq	(%r14), %rsi
	testq	%rsi, %rsi
	je	.LBB22_9
.Ltmp400:
	.cv_inline_site_id 213 within 198 inlined_at 18 1424 0
	.cv_loc	213 19 1543 0
	andb	%dil, %bl
.Ltmp401:
	leaq	16(%rsi), %rcx
.Ltmp402:
	.cv_loc	198 18 1424 0
.Ltmp381:
	movl	%ebx, %edx
	callq	_ZN3std6thread6scoped9ScopeData29decrement_num_running_threads17h0e69a70fa1fa6e60E
.Ltmp403:
.Ltmp382:
	.cv_inline_site_id 214 within 197 inlined_at 8 497 0
	.cv_inline_site_id 215 within 214 inlined_at 8 497 0
	.cv_inline_site_id 216 within 215 inlined_at 8 497 0
	.cv_inline_site_id 217 within 216 inlined_at 19 1862 0
	.cv_inline_site_id 218 within 217 inlined_at 3 2540 0
	.cv_loc	218 3 3205 0
	lock		decq	(%rsi)
	movq	-24(%rbp), %r14
.Ltmp404:
	.cv_loc	216 19 1862 0
	jne	.LBB22_9
.Ltmp405:
	.cv_inline_site_id 219 within 216 inlined_at 19 66 0
	.cv_loc	219 3 3496 0
	#MEMBARRIER
	.cv_loc	216 19 1897 0
	movq	%rsi, %rcx
	callq	_ZN5alloc4sync12Arc$LT$T$GT$9drop_slow17hc17ef524d2429d0bE
.Ltmp406:
.LBB22_9:
	.cv_inline_site_id 220 within 197 inlined_at 8 497 0
	.cv_inline_site_id 221 within 220 inlined_at 8 497 0
	.cv_loc	221 8 497 0
	movq	-16(%rbp), %rax
.Ltmp407:
	cmpq	$0, (%rax)
	je	.LBB22_29
.Ltmp408:
	movq	16(%r14), %rcx
.Ltmp409:
	.cv_inline_site_id 222 within 221 inlined_at 8 497 0
	.cv_loc	222 8 497 0
	testq	%rcx, %rcx
	je	.LBB22_29
.Ltmp410:
	.cv_loc	221 8 497 0
	movq	24(%r14), %rax
.Ltmp411:
	.cv_inline_site_id 223 within 222 inlined_at 8 497 0
	.cv_loc	223 8 497 0
.Ltmp383:
	movq	%rcx, -24(%rbp)
.Ltmp412:
	movq	%rax, -16(%rbp)
.Ltmp413:
	callq	*(%rax)
.Ltmp384:
.Ltmp414:
	.cv_inline_site_id 224 within 223 inlined_at 8 497 0
	.cv_inline_site_id 225 within 224 inlined_at 11 1221 0
	.cv_inline_site_id 226 within 225 inlined_at 12 199 0
	.cv_loc	226 10 394 0
	movq	-16(%rbp), %rax
.Ltmp415:
	movq	8(%rax), %rdx
.Ltmp416:
	.cv_inline_site_id 227 within 224 inlined_at 11 1222 0
	.cv_loc	227 13 255 0
	testq	%rdx, %rdx
	movq	-24(%rbp), %rcx
	je	.LBB22_29
.Ltmp417:
	.cv_inline_site_id 228 within 227 inlined_at 13 258 0
	.cv_loc	228 13 121 0
	movq	16(%rax), %r8
.Ltmp418:
	addq	$144, %rsp
	popq	%rbx
	popq	%rdi
	popq	%rsi
	popq	%r14
.Ltmp419:
	popq	%rbp
	jmp	__rust_dealloc
.Ltmp420:
.LBB22_29:
	.cv_loc	197 8 497 0
	nop
	addq	$144, %rsp
	popq	%rbx
	popq	%rdi
	popq	%rsi
	popq	%r14
.Ltmp421:
	popq	%rbp
	retq
.Ltmp422:
.LBB22_21:
$ehgcr_22_21:
	.cv_loc	198 18 1416 0
.Ltmp373:
	callq	_ZN3std3sys7windows5stdio12panic_output17h002b236d5d2b37f6E
.Ltmp374:
.Ltmp423:
	testb	$1, %al
	jne	.LBB22_25
.Ltmp424:
.LBB22_23:
	.cv_loc	198 18 1416 0
.Ltmp379:
	callq	_ZN3std3sys7windows14abort_internal17hab131b5f94137c96E
.Ltmp380:
.Ltmp425:
	ud2
.Ltmp426:
.LBB22_25:
	.cv_loc	198 18 1416 0
	movq	%rax, %rcx
	shrq	$8, %rcx
	shrq	$40, %rax
	movb	%al, -44(%rbp)
	movl	%ecx, -48(%rbp)
.Ltmp427:
	.cv_inline_site_id 229 within 198 inlined_at 18 1416 0
	.cv_loc	229 15 311 0
	leaq	__unnamed_5(%rip), %rax
.Ltmp428:
	movq	%rax, -96(%rbp)
	movq	$1, -88(%rbp)
	leaq	-8(%rbp), %rax
.Ltmp429:
	movq	%rax, -80(%rbp)
	xorps	%xmm0, %xmm0
	movups	%xmm0, -72(%rbp)
	.cv_loc	198 18 1416 0
.Ltmp375:
	leaq	-48(%rbp), %rcx
	leaq	-96(%rbp), %rdx
.Ltmp430:
	callq	_ZN3std2io5Write9write_fmt17hbbccc63080fa1097E
.Ltmp376:
.Ltmp431:
.Ltmp377:
	movq	%rax, %rcx
	callq	_ZN4core3ptr81drop_in_place$LT$core..result..Result$LT$$LP$$RP$$C$std..io..error..Error$GT$$GT$17h21aec0316e1aa4b4E
.Ltmp378:
	jmp	.LBB22_23
.Ltmp432:
	.seh_handlerdata
	.long	($cppxdata$_ZN4core3ptr56drop_in_place$LT$std..thread..Packet$LT$$LP$$RP$$GT$$GT$17h7ce191c5b9525e48E)@IMGREL
	.section	.text,"xr",one_only,_ZN4core3ptr56drop_in_place$LT$std..thread..Packet$LT$$LP$$RP$$GT$$GT$17h7ce191c5b9525e48E
	.seh_endproc
	.def	"?catch$14@?0?_ZN4core3ptr56drop_in_place$LT$std..thread..Packet$LT$$LP$$RP$$GT$$GT$17h7ce191c5b9525e48E@4HA";
	.scl	3;
	.type	32;
	.endef
	.p2align	4, 0x90
"?catch$14@?0?_ZN4core3ptr56drop_in_place$LT$std..thread..Packet$LT$$LP$$RP$$GT$$GT$17h7ce191c5b9525e48E@4HA":
.seh_proc "?catch$14@?0?_ZN4core3ptr56drop_in_place$LT$std..thread..Packet$LT$$LP$$RP$$GT$$GT$17h7ce191c5b9525e48E@4HA"
	.seh_handler __CxxFrameHandler3, @unwind, @except
.LBB22_14:
	movq	%rdx, 16(%rsp)
	pushq	%rbp
	.seh_pushreg %rbp
.Ltmp433:
	pushq	%r14
	.seh_pushreg %r14
	pushq	%rsi
	.seh_pushreg %rsi
	pushq	%rdi
	.seh_pushreg %rdi
	pushq	%rbx
	.seh_pushreg %rbx
	subq	$32, %rsp
	.seh_stackalloc 32
	leaq	128(%rdx), %rbp
.Ltmp434:
	.seh_endprologue
	.cv_inline_site_id 230 within 200 inlined_at 21 464 0
	.cv_loc	230 21 517 0
	callq	_ZN4core9panicking19panic_cannot_unwind17h54ebc55b37a3eb2aE
	ud2
.Ltmp435:
	.seh_handlerdata
	.long	($cppxdata$_ZN4core3ptr56drop_in_place$LT$std..thread..Packet$LT$$LP$$RP$$GT$$GT$17h7ce191c5b9525e48E)@IMGREL
	.section	.text,"xr",one_only,_ZN4core3ptr56drop_in_place$LT$std..thread..Packet$LT$$LP$$RP$$GT$$GT$17h7ce191c5b9525e48E
	.seh_endproc
	.def	"?catch$15@?0?_ZN4core3ptr56drop_in_place$LT$std..thread..Packet$LT$$LP$$RP$$GT$$GT$17h7ce191c5b9525e48E@4HA";
	.scl	3;
	.type	32;
	.endef
	.p2align	4, 0x90
"?catch$15@?0?_ZN4core3ptr56drop_in_place$LT$std..thread..Packet$LT$$LP$$RP$$GT$$GT$17h7ce191c5b9525e48E@4HA":
.seh_proc "?catch$15@?0?_ZN4core3ptr56drop_in_place$LT$std..thread..Packet$LT$$LP$$RP$$GT$$GT$17h7ce191c5b9525e48E@4HA"
	.seh_handler __CxxFrameHandler3, @unwind, @except
.LBB22_15:
	movq	%rdx, 16(%rsp)
	pushq	%rbp
	.seh_pushreg %rbp
	pushq	%r14
	.seh_pushreg %r14
	pushq	%rsi
	.seh_pushreg %rsi
	pushq	%rdi
	.seh_pushreg %rdi
	pushq	%rbx
	.seh_pushreg %rbx
	subq	$32, %rsp
	.seh_stackalloc 32
	leaq	128(%rdx), %rbp
.Ltmp436:
	.seh_endprologue
	.cv_loc	200 21 464 0
	movq	8(%rbp), %rcx
.Ltmp437:
	.cv_loc	230 21 526 0
.Ltmp371:
	callq	_ZN3std9panicking3try7cleanup17h30fee0ef194feb74E
.Ltmp438:
	movq	%rax, -40(%rbp)
	movq	%rdx, -32(%rbp)
.Ltmp439:
.Ltmp372:
	.cv_loc	200 21 464 0
	leaq	.LBB22_21(%rip), %rax
	addq	$32, %rsp
	popq	%rbx
	popq	%rdi
	popq	%rsi
	popq	%r14
	popq	%rbp
	retq
.Ltmp440:
	.seh_handlerdata
	.long	($cppxdata$_ZN4core3ptr56drop_in_place$LT$std..thread..Packet$LT$$LP$$RP$$GT$$GT$17h7ce191c5b9525e48E)@IMGREL
	.section	.text,"xr",one_only,_ZN4core3ptr56drop_in_place$LT$std..thread..Packet$LT$$LP$$RP$$GT$$GT$17h7ce191c5b9525e48E
	.seh_endproc
	.def	"?catch$17@?0?_ZN4core3ptr56drop_in_place$LT$std..thread..Packet$LT$$LP$$RP$$GT$$GT$17h7ce191c5b9525e48E@4HA";
	.scl	3;
	.type	32;
	.endef
	.p2align	4, 0x90
"?catch$17@?0?_ZN4core3ptr56drop_in_place$LT$std..thread..Packet$LT$$LP$$RP$$GT$$GT$17h7ce191c5b9525e48E@4HA":
.seh_proc "?catch$17@?0?_ZN4core3ptr56drop_in_place$LT$std..thread..Packet$LT$$LP$$RP$$GT$$GT$17h7ce191c5b9525e48E@4HA"
	.seh_handler __CxxFrameHandler3, @unwind, @except
.LBB22_17:
	movq	%rdx, 16(%rsp)
	pushq	%rbp
	.seh_pushreg %rbp
.Ltmp441:
	pushq	%r14
	.seh_pushreg %r14
	pushq	%rsi
	.seh_pushreg %rsi
	pushq	%rdi
	.seh_pushreg %rdi
	pushq	%rbx
	.seh_pushreg %rbx
	subq	$32, %rsp
	.seh_stackalloc 32
	leaq	128(%rdx), %rbp
.Ltmp442:
	.seh_endprologue
	.cv_inline_site_id 231 within 200 inlined_at 21 464 0
	.cv_loc	231 21 517 0
	callq	_ZN4core9panicking19panic_cannot_unwind17h54ebc55b37a3eb2aE
	ud2
.Ltmp443:
	.seh_handlerdata
	.long	($cppxdata$_ZN4core3ptr56drop_in_place$LT$std..thread..Packet$LT$$LP$$RP$$GT$$GT$17h7ce191c5b9525e48E)@IMGREL
	.section	.text,"xr",one_only,_ZN4core3ptr56drop_in_place$LT$std..thread..Packet$LT$$LP$$RP$$GT$$GT$17h7ce191c5b9525e48E
	.seh_endproc
	.def	"?catch$18@?0?_ZN4core3ptr56drop_in_place$LT$std..thread..Packet$LT$$LP$$RP$$GT$$GT$17h7ce191c5b9525e48E@4HA";
	.scl	3;
	.type	32;
	.endef
	.p2align	4, 0x90
"?catch$18@?0?_ZN4core3ptr56drop_in_place$LT$std..thread..Packet$LT$$LP$$RP$$GT$$GT$17h7ce191c5b9525e48E@4HA":
.seh_proc "?catch$18@?0?_ZN4core3ptr56drop_in_place$LT$std..thread..Packet$LT$$LP$$RP$$GT$$GT$17h7ce191c5b9525e48E@4HA"
	.seh_handler __CxxFrameHandler3, @unwind, @except
.LBB22_18:
	movq	%rdx, 16(%rsp)
	pushq	%rbp
	.seh_pushreg %rbp
.Ltmp444:
	pushq	%r14
	.seh_pushreg %r14
	pushq	%rsi
	.seh_pushreg %rsi
	pushq	%rdi
	.seh_pushreg %rdi
	pushq	%rbx
	.seh_pushreg %rbx
	subq	$32, %rsp
	.seh_stackalloc 32
	leaq	128(%rdx), %rbp
.Ltmp445:
	.seh_endprologue
	.cv_loc	231 21 526 0
.Ltmp369:
.Ltmp446:
	xorl	%ecx, %ecx
	callq	_ZN3std9panicking3try7cleanup17h30fee0ef194feb74E
	movq	%rax, -40(%rbp)
	movq	%rdx, -32(%rbp)
.Ltmp447:
.Ltmp370:
	.cv_loc	200 21 464 0
	leaq	.LBB22_21(%rip), %rax
	addq	$32, %rsp
	popq	%rbx
	popq	%rdi
	popq	%rsi
	popq	%r14
	popq	%rbp
	retq
.Ltmp448:
	.seh_handlerdata
	.long	($cppxdata$_ZN4core3ptr56drop_in_place$LT$std..thread..Packet$LT$$LP$$RP$$GT$$GT$17h7ce191c5b9525e48E)@IMGREL
	.section	.text,"xr",one_only,_ZN4core3ptr56drop_in_place$LT$std..thread..Packet$LT$$LP$$RP$$GT$$GT$17h7ce191c5b9525e48E
	.seh_endproc
	.def	"?dtor$20@?0?_ZN4core3ptr56drop_in_place$LT$std..thread..Packet$LT$$LP$$RP$$GT$$GT$17h7ce191c5b9525e48E@4HA";
	.scl	3;
	.type	32;
	.endef
	.p2align	4, 0x90
"?dtor$20@?0?_ZN4core3ptr56drop_in_place$LT$std..thread..Packet$LT$$LP$$RP$$GT$$GT$17h7ce191c5b9525e48E@4HA":
.seh_proc "?dtor$20@?0?_ZN4core3ptr56drop_in_place$LT$std..thread..Packet$LT$$LP$$RP$$GT$$GT$17h7ce191c5b9525e48E@4HA"
.LBB22_20:
	movq	%rdx, 16(%rsp)
	pushq	%rbp
	.seh_pushreg %rbp
	pushq	%r14
	.seh_pushreg %r14
	pushq	%rsi
	.seh_pushreg %rsi
	pushq	%rdi
	.seh_pushreg %rdi
	pushq	%rbx
	.seh_pushreg %rbx
	subq	$32, %rsp
	.seh_stackalloc 32
	leaq	128(%rdx), %rbp
.Ltmp449:
	.seh_endprologue
	movq	-40(%rbp), %rcx
	movq	-32(%rbp), %rdx
	.cv_loc	198 18 1417 0
	callq	_ZN4core3ptr130drop_in_place$LT$core..result..Result$LT$$LP$$RP$$C$alloc..boxed..Box$LT$dyn$u20$core..any..Any$u2b$core..marker..Send$GT$$GT$$GT$17h89b4a814ad37826eE
	nop
	addq	$32, %rsp
	popq	%rbx
	popq	%rdi
	popq	%rsi
	popq	%r14
	popq	%rbp
	retq
.Ltmp450:
	.seh_handlerdata
	.section	.text,"xr",one_only,_ZN4core3ptr56drop_in_place$LT$std..thread..Packet$LT$$LP$$RP$$GT$$GT$17h7ce191c5b9525e48E
	.seh_endproc
	.def	"?dtor$27@?0?_ZN4core3ptr56drop_in_place$LT$std..thread..Packet$LT$$LP$$RP$$GT$$GT$17h7ce191c5b9525e48E@4HA";
	.scl	3;
	.type	32;
	.endef
	.p2align	4, 0x90
"?dtor$27@?0?_ZN4core3ptr56drop_in_place$LT$std..thread..Packet$LT$$LP$$RP$$GT$$GT$17h7ce191c5b9525e48E@4HA":
.seh_proc "?dtor$27@?0?_ZN4core3ptr56drop_in_place$LT$std..thread..Packet$LT$$LP$$RP$$GT$$GT$17h7ce191c5b9525e48E@4HA"
.LBB22_27:
	movq	%rdx, 16(%rsp)
	pushq	%rbp
	.seh_pushreg %rbp
	pushq	%r14
	.seh_pushreg %r14
	pushq	%rsi
	.seh_pushreg %rsi
	pushq	%rdi
	.seh_pushreg %rdi
	pushq	%rbx
	.seh_pushreg %rbx
	subq	$32, %rsp
	.seh_stackalloc 32
	leaq	128(%rdx), %rbp
.Ltmp451:
	.seh_endprologue
	movq	-24(%rbp), %rax
	.cv_loc	197 8 497 0
	movq	(%rax), %rcx
	callq	_ZN4core3ptr103drop_in_place$LT$core..option..Option$LT$alloc..sync..Arc$LT$std..thread..scoped..ScopeData$GT$$GT$$GT$17h63658dc606daf782E
	movq	-16(%rbp), %rcx
	callq	_ZN4core3ptr188drop_in_place$LT$core..cell..UnsafeCell$LT$core..option..Option$LT$core..result..Result$LT$$LP$$RP$$C$alloc..boxed..Box$LT$dyn$u20$core..any..Any$u2b$core..marker..Send$GT$$GT$$GT$$GT$$GT$17hefcfb4562b93c7cdE
	nop
	addq	$32, %rsp
	popq	%rbx
	popq	%rdi
	popq	%rsi
	popq	%r14
	popq	%rbp
	retq
	.seh_handlerdata
	.section	.text,"xr",one_only,_ZN4core3ptr56drop_in_place$LT$std..thread..Packet$LT$$LP$$RP$$GT$$GT$17h7ce191c5b9525e48E
	.seh_endproc
	.def	"?dtor$28@?0?_ZN4core3ptr56drop_in_place$LT$std..thread..Packet$LT$$LP$$RP$$GT$$GT$17h7ce191c5b9525e48E@4HA";
	.scl	3;
	.type	32;
	.endef
	.p2align	4, 0x90
"?dtor$28@?0?_ZN4core3ptr56drop_in_place$LT$std..thread..Packet$LT$$LP$$RP$$GT$$GT$17h7ce191c5b9525e48E@4HA":
.seh_proc "?dtor$28@?0?_ZN4core3ptr56drop_in_place$LT$std..thread..Packet$LT$$LP$$RP$$GT$$GT$17h7ce191c5b9525e48E@4HA"
.LBB22_28:
.Ltmp452:
	movq	%rdx, 16(%rsp)
	pushq	%rbp
	.seh_pushreg %rbp
	pushq	%r14
	.seh_pushreg %r14
	pushq	%rsi
	.seh_pushreg %rsi
	pushq	%rdi
	.seh_pushreg %rdi
	pushq	%rbx
	.seh_pushreg %rbx
	subq	$32, %rsp
	.seh_stackalloc 32
	leaq	128(%rdx), %rbp
	.seh_endprologue
	movq	-24(%rbp), %rcx
	movq	-16(%rbp), %rdx
.Ltmp453:
	.cv_loc	223 8 497 0
	callq	_ZN72_$LT$alloc..boxed..Box$LT$T$C$A$GT$$u20$as$u20$core..ops..drop..Drop$GT$4drop17h6741ce1b38ae4f6bE
	nop
	addq	$32, %rsp
	popq	%rbx
	popq	%rdi
	popq	%rsi
	popq	%r14
.Ltmp454:
	popq	%rbp
	retq
.Ltmp455:
	.seh_handlerdata
	.section	.text,"xr",one_only,_ZN4core3ptr56drop_in_place$LT$std..thread..Packet$LT$$LP$$RP$$GT$$GT$17h7ce191c5b9525e48E
	.seh_endproc
	.def	"?dtor$30@?0?_ZN4core3ptr56drop_in_place$LT$std..thread..Packet$LT$$LP$$RP$$GT$$GT$17h7ce191c5b9525e48E@4HA";
	.scl	3;
	.type	32;
	.endef
	.p2align	4, 0x90
"?dtor$30@?0?_ZN4core3ptr56drop_in_place$LT$std..thread..Packet$LT$$LP$$RP$$GT$$GT$17h7ce191c5b9525e48E@4HA":
.seh_proc "?dtor$30@?0?_ZN4core3ptr56drop_in_place$LT$std..thread..Packet$LT$$LP$$RP$$GT$$GT$17h7ce191c5b9525e48E@4HA"
.LBB22_30:
	movq	%rdx, 16(%rsp)
	pushq	%rbp
	.seh_pushreg %rbp
	pushq	%r14
	.seh_pushreg %r14
	pushq	%rsi
	.seh_pushreg %rsi
	pushq	%rdi
	.seh_pushreg %rdi
	pushq	%rbx
	.seh_pushreg %rbx
	subq	$32, %rsp
	.seh_stackalloc 32
	leaq	128(%rdx), %rbp
.Ltmp456:
	.seh_endprologue
	movq	-40(%rbp), %rcx
	movq	-32(%rbp), %rdx
.Ltmp457:
	.cv_loc	207 8 497 0
	callq	_ZN72_$LT$alloc..boxed..Box$LT$T$C$A$GT$$u20$as$u20$core..ops..drop..Drop$GT$4drop17h6741ce1b38ae4f6bE
	movq	-16(%rbp), %rax
.Ltmp458:
	.cv_loc	204 18 1414 0
	movq	$0, (%rax)
	addq	$32, %rsp
	popq	%rbx
	popq	%rdi
	popq	%rsi
	popq	%r14
	popq	%rbp
	retq
.Ltmp459:
.Lfunc_end22:
	.seh_handlerdata
	.section	.text,"xr",one_only,_ZN4core3ptr56drop_in_place$LT$std..thread..Packet$LT$$LP$$RP$$GT$$GT$17h7ce191c5b9525e48E
	.seh_endproc
	.section	.xdata,"dr",associative,_ZN4core3ptr56drop_in_place$LT$std..thread..Packet$LT$$LP$$RP$$GT$$GT$17h7ce191c5b9525e48E
	.p2align	2, 0x0
$cppxdata$_ZN4core3ptr56drop_in_place$LT$std..thread..Packet$LT$$LP$$RP$$GT$$GT$17h7ce191c5b9525e48E:
	.long	429065506
	.long	10
	.long	($stateUnwindMap$_ZN4core3ptr56drop_in_place$LT$std..thread..Packet$LT$$LP$$RP$$GT$$GT$17h7ce191c5b9525e48E)@IMGREL
	.long	3
	.long	($tryMap$_ZN4core3ptr56drop_in_place$LT$std..thread..Packet$LT$$LP$$RP$$GT$$GT$17h7ce191c5b9525e48E)@IMGREL
	.long	14
	.long	($ip2state$_ZN4core3ptr56drop_in_place$LT$std..thread..Packet$LT$$LP$$RP$$GT$$GT$17h7ce191c5b9525e48E)@IMGREL
	.long	128
	.long	0
	.long	1
$stateUnwindMap$_ZN4core3ptr56drop_in_place$LT$std..thread..Packet$LT$$LP$$RP$$GT$$GT$17h7ce191c5b9525e48E:
	.long	-1
	.long	"?dtor$27@?0?_ZN4core3ptr56drop_in_place$LT$std..thread..Packet$LT$$LP$$RP$$GT$$GT$17h7ce191c5b9525e48E@4HA"@IMGREL
	.long	0
	.long	"?dtor$20@?0?_ZN4core3ptr56drop_in_place$LT$std..thread..Packet$LT$$LP$$RP$$GT$$GT$17h7ce191c5b9525e48E@4HA"@IMGREL
	.long	0
	.long	0
	.long	2
	.long	"?dtor$30@?0?_ZN4core3ptr56drop_in_place$LT$std..thread..Packet$LT$$LP$$RP$$GT$$GT$17h7ce191c5b9525e48E@4HA"@IMGREL
	.long	0
	.long	0
	.long	4
	.long	0
	.long	4
	.long	0
	.long	4
	.long	0
	.long	4
	.long	0
	.long	-1
	.long	"?dtor$28@?0?_ZN4core3ptr56drop_in_place$LT$std..thread..Packet$LT$$LP$$RP$$GT$$GT$17h7ce191c5b9525e48E@4HA"@IMGREL
$tryMap$_ZN4core3ptr56drop_in_place$LT$std..thread..Packet$LT$$LP$$RP$$GT$$GT$17h7ce191c5b9525e48E:
	.long	2
	.long	3
	.long	8
	.long	2
	.long	($handlerMap$0$_ZN4core3ptr56drop_in_place$LT$std..thread..Packet$LT$$LP$$RP$$GT$$GT$17h7ce191c5b9525e48E)@IMGREL
	.long	5
	.long	5
	.long	6
	.long	1
	.long	($handlerMap$1$_ZN4core3ptr56drop_in_place$LT$std..thread..Packet$LT$$LP$$RP$$GT$$GT$17h7ce191c5b9525e48E)@IMGREL
	.long	7
	.long	7
	.long	8
	.long	1
	.long	($handlerMap$2$_ZN4core3ptr56drop_in_place$LT$std..thread..Packet$LT$$LP$$RP$$GT$$GT$17h7ce191c5b9525e48E)@IMGREL
$handlerMap$0$_ZN4core3ptr56drop_in_place$LT$std..thread..Packet$LT$$LP$$RP$$GT$$GT$17h7ce191c5b9525e48E:
	.long	8
	.long	__rust_panic_type_info@IMGREL
	.long	136
	.long	"?catch$15@?0?_ZN4core3ptr56drop_in_place$LT$std..thread..Packet$LT$$LP$$RP$$GT$$GT$17h7ce191c5b9525e48E@4HA"@IMGREL
	.long	88
	.long	64
	.long	0
	.long	0
	.long	"?catch$18@?0?_ZN4core3ptr56drop_in_place$LT$std..thread..Packet$LT$$LP$$RP$$GT$$GT$17h7ce191c5b9525e48E@4HA"@IMGREL
	.long	88
$handlerMap$1$_ZN4core3ptr56drop_in_place$LT$std..thread..Packet$LT$$LP$$RP$$GT$$GT$17h7ce191c5b9525e48E:
	.long	64
	.long	0
	.long	0
	.long	"?catch$14@?0?_ZN4core3ptr56drop_in_place$LT$std..thread..Packet$LT$$LP$$RP$$GT$$GT$17h7ce191c5b9525e48E@4HA"@IMGREL
	.long	88
$handlerMap$2$_ZN4core3ptr56drop_in_place$LT$std..thread..Packet$LT$$LP$$RP$$GT$$GT$17h7ce191c5b9525e48E:
	.long	64
	.long	0
	.long	0
	.long	"?catch$17@?0?_ZN4core3ptr56drop_in_place$LT$std..thread..Packet$LT$$LP$$RP$$GT$$GT$17h7ce191c5b9525e48E@4HA"@IMGREL
	.long	88
$ip2state$_ZN4core3ptr56drop_in_place$LT$std..thread..Packet$LT$$LP$$RP$$GT$$GT$17h7ce191c5b9525e48E:
	.long	.Lfunc_begin22@IMGREL
	.long	-1
	.long	.Ltmp367@IMGREL+1
	.long	3
	.long	.Ltmp381@IMGREL+1
	.long	0
	.long	.Ltmp383@IMGREL+1
	.long	9
	.long	.Ltmp373@IMGREL+1
	.long	1
	.long	.Ltmp378@IMGREL+1
	.long	-1
	.long	"?catch$14@?0?_ZN4core3ptr56drop_in_place$LT$std..thread..Packet$LT$$LP$$RP$$GT$$GT$17h7ce191c5b9525e48E@4HA"@IMGREL
	.long	6
	.long	"?catch$15@?0?_ZN4core3ptr56drop_in_place$LT$std..thread..Packet$LT$$LP$$RP$$GT$$GT$17h7ce191c5b9525e48E@4HA"@IMGREL
	.long	4
	.long	.Ltmp371@IMGREL+1
	.long	5
	.long	.Ltmp372@IMGREL+1
	.long	4
	.long	"?catch$17@?0?_ZN4core3ptr56drop_in_place$LT$std..thread..Packet$LT$$LP$$RP$$GT$$GT$17h7ce191c5b9525e48E@4HA"@IMGREL
	.long	8
	.long	"?catch$18@?0?_ZN4core3ptr56drop_in_place$LT$std..thread..Packet$LT$$LP$$RP$$GT$$GT$17h7ce191c5b9525e48E@4HA"@IMGREL
	.long	4
	.long	.Ltmp369@IMGREL+1
	.long	7
	.long	.Ltmp370@IMGREL+1
	.long	4
	.section	.text,"xr",one_only,_ZN4core3ptr56drop_in_place$LT$std..thread..Packet$LT$$LP$$RP$$GT$$GT$17h7ce191c5b9525e48E

	.def	_ZN4core3ptr60drop_in_place$LT$std..thread..JoinHandle$LT$$LP$$RP$$GT$$GT$17h04f184e00f2018e6E;
	.scl	3;
	.type	32;
	.endef
	.section	.text,"xr",one_only,_ZN4core3ptr60drop_in_place$LT$std..thread..JoinHandle$LT$$LP$$RP$$GT$$GT$17h04f184e00f2018e6E
	.p2align	4, 0x90
_ZN4core3ptr60drop_in_place$LT$std..thread..JoinHandle$LT$$LP$$RP$$GT$$GT$17h04f184e00f2018e6E:
.Lfunc_begin23:
	.cv_func_id 232
	.cv_loc	232 8 497 0
.seh_proc _ZN4core3ptr60drop_in_place$LT$std..thread..JoinHandle$LT$$LP$$RP$$GT$$GT$17h04f184e00f2018e6E
	.seh_handler __CxxFrameHandler3, @unwind, @except
	pushq	%rbp
	.seh_pushreg %rbp
	pushq	%rsi
	.seh_pushreg %rsi
	subq	$56, %rsp
	.seh_stackalloc 56
	leaq	48(%rsp), %rbp
	.seh_setframe %rbp, 48
	.seh_endprologue
	movq	$-2, (%rbp)
	movq	%rcx, -8(%rbp)
.Ltmp462:
	.cv_inline_site_id 233 within 232 inlined_at 8 497 0
	.cv_loc	233 8 497 0
	movq	16(%rcx), %rcx
.Ltmp463:
	.cv_file	25 "/rustc/5680fa18feaa87f3ff04063800aec256c3d4b4be\\library\\std\\src\\os\\windows\\io\\handle.rs" "7CCA48EDED88AB5DFDEC52973107FA7424C609CE" 2
	.cv_inline_site_id 234 within 233 inlined_at 8 497 0
	.cv_inline_site_id 235 within 234 inlined_at 8 497 0
	.cv_inline_site_id 236 within 235 inlined_at 8 497 0
	.cv_inline_site_id 237 within 236 inlined_at 8 497 0
	.cv_loc	237 25 368 0
.Ltmp460:
	callq	*__imp_CloseHandle(%rip)
.Ltmp464:
.Ltmp461:
	.cv_loc	233 8 497 0
	movq	-8(%rbp), %rsi
	movq	(%rsi), %rcx
.Ltmp465:
	.cv_inline_site_id 238 within 233 inlined_at 8 497 0
	.cv_inline_site_id 239 within 238 inlined_at 8 497 0
	.cv_inline_site_id 240 within 239 inlined_at 8 497 0
	.cv_inline_site_id 241 within 240 inlined_at 8 497 0
	.cv_inline_site_id 242 within 241 inlined_at 19 1862 0
	.cv_inline_site_id 243 within 242 inlined_at 3 2540 0
	.cv_loc	243 3 3205 0
	lock		decq	(%rcx)
.Ltmp466:
	.cv_loc	241 19 1862 0
	jne	.LBB23_3
.Ltmp467:
	.cv_inline_site_id 244 within 241 inlined_at 19 66 0
	.cv_loc	244 3 3496 0
	#MEMBARRIER
	.cv_loc	241 19 1897 0
	callq	_ZN5alloc4sync12Arc$LT$T$GT$9drop_slow17hf6180cbef32ec201E
.Ltmp468:
.LBB23_3:
	.cv_loc	233 8 497 0
	movq	8(%rsi), %rcx
.Ltmp469:
	.cv_inline_site_id 245 within 233 inlined_at 8 497 0
	.cv_inline_site_id 246 within 245 inlined_at 8 497 0
	.cv_inline_site_id 247 within 246 inlined_at 19 1862 0
	.cv_inline_site_id 248 within 247 inlined_at 3 2540 0
	.cv_loc	248 3 3205 0
	lock		decq	(%rcx)
.Ltmp470:
	.cv_loc	246 19 1862 0
	jne	.LBB23_4
.Ltmp471:
	.cv_inline_site_id 249 within 246 inlined_at 19 66 0
	.cv_loc	249 3 3496 0
	#MEMBARRIER
	.cv_loc	246 19 1897 0
	addq	$56, %rsp
	popq	%rsi
	popq	%rbp
	jmp	_ZN5alloc4sync12Arc$LT$T$GT$9drop_slow17h12dcb8e2605acdf7E
.Ltmp472:
.LBB23_4:
	.cv_loc	232 8 497 0
	nop
	addq	$56, %rsp
	popq	%rsi
	popq	%rbp
	retq
.Ltmp473:
	.seh_handlerdata
	.long	($cppxdata$_ZN4core3ptr60drop_in_place$LT$std..thread..JoinHandle$LT$$LP$$RP$$GT$$GT$17h04f184e00f2018e6E)@IMGREL
	.section	.text,"xr",one_only,_ZN4core3ptr60drop_in_place$LT$std..thread..JoinHandle$LT$$LP$$RP$$GT$$GT$17h04f184e00f2018e6E
	.seh_endproc
	.def	"?dtor$5@?0?_ZN4core3ptr60drop_in_place$LT$std..thread..JoinHandle$LT$$LP$$RP$$GT$$GT$17h04f184e00f2018e6E@4HA";
	.scl	3;
	.type	32;
	.endef
	.p2align	4, 0x90
"?dtor$5@?0?_ZN4core3ptr60drop_in_place$LT$std..thread..JoinHandle$LT$$LP$$RP$$GT$$GT$17h04f184e00f2018e6E@4HA":
.seh_proc "?dtor$5@?0?_ZN4core3ptr60drop_in_place$LT$std..thread..JoinHandle$LT$$LP$$RP$$GT$$GT$17h04f184e00f2018e6E@4HA"
.LBB23_5:
	movq	%rdx, 16(%rsp)
	pushq	%rbp
	.seh_pushreg %rbp
	pushq	%rsi
	.seh_pushreg %rsi
	subq	$40, %rsp
	.seh_stackalloc 40
	leaq	48(%rdx), %rbp
.Ltmp474:
	.seh_endprologue
	movq	-8(%rbp), %rsi
.Ltmp475:
	.cv_loc	233 8 497 0
	movq	(%rsi), %rcx
	callq	_ZN4core3ptr40drop_in_place$LT$std..thread..Thread$GT$17hf8a0d34335fb1b2fE
	movq	8(%rsi), %rcx
	callq	_ZN4core3ptr80drop_in_place$LT$alloc..sync..Arc$LT$std..thread..Packet$LT$$LP$$RP$$GT$$GT$$GT$17ha058be337863582dE
	nop
	addq	$40, %rsp
	popq	%rsi
	popq	%rbp
	retq
.Ltmp476:
.Lfunc_end23:
	.seh_handlerdata
	.section	.text,"xr",one_only,_ZN4core3ptr60drop_in_place$LT$std..thread..JoinHandle$LT$$LP$$RP$$GT$$GT$17h04f184e00f2018e6E
	.seh_endproc
	.section	.xdata,"dr",associative,_ZN4core3ptr60drop_in_place$LT$std..thread..JoinHandle$LT$$LP$$RP$$GT$$GT$17h04f184e00f2018e6E
	.p2align	2, 0x0
$cppxdata$_ZN4core3ptr60drop_in_place$LT$std..thread..JoinHandle$LT$$LP$$RP$$GT$$GT$17h04f184e00f2018e6E:
	.long	429065506
	.long	1
	.long	($stateUnwindMap$_ZN4core3ptr60drop_in_place$LT$std..thread..JoinHandle$LT$$LP$$RP$$GT$$GT$17h04f184e00f2018e6E)@IMGREL
	.long	0
	.long	0
	.long	3
	.long	($ip2state$_ZN4core3ptr60drop_in_place$LT$std..thread..JoinHandle$LT$$LP$$RP$$GT$$GT$17h04f184e00f2018e6E)@IMGREL
	.long	48
	.long	0
	.long	1
$stateUnwindMap$_ZN4core3ptr60drop_in_place$LT$std..thread..JoinHandle$LT$$LP$$RP$$GT$$GT$17h04f184e00f2018e6E:
	.long	-1
	.long	"?dtor$5@?0?_ZN4core3ptr60drop_in_place$LT$std..thread..JoinHandle$LT$$LP$$RP$$GT$$GT$17h04f184e00f2018e6E@4HA"@IMGREL
$ip2state$_ZN4core3ptr60drop_in_place$LT$std..thread..JoinHandle$LT$$LP$$RP$$GT$$GT$17h04f184e00f2018e6E:
	.long	.Lfunc_begin23@IMGREL
	.long	-1
	.long	.Ltmp460@IMGREL+1
	.long	0
	.long	.Ltmp461@IMGREL+1
	.long	-1
	.section	.text,"xr",one_only,_ZN4core3ptr60drop_in_place$LT$std..thread..JoinHandle$LT$$LP$$RP$$GT$$GT$17h04f184e00f2018e6E

	.def	_ZN4core3ptr70drop_in_place$LT$core..option..Option$LT$alloc..string..String$GT$$GT$17hf2ffb45f39363c00E;
	.scl	3;
	.type	32;
	.endef
	.section	.text,"xr",one_only,_ZN4core3ptr70drop_in_place$LT$core..option..Option$LT$alloc..string..String$GT$$GT$17hf2ffb45f39363c00E
	.p2align	4, 0x90
_ZN4core3ptr70drop_in_place$LT$core..option..Option$LT$alloc..string..String$GT$$GT$17hf2ffb45f39363c00E:
.Lfunc_begin24:
	.cv_func_id 250
	.cv_loc	250 8 497 0
	testq	%rcx, %rcx
	je	.LBB24_2
.Ltmp477:
	testq	%rdx, %rdx
	je	.LBB24_2
.Ltmp478:
	.cv_inline_site_id 251 within 250 inlined_at 8 497 0
	.cv_inline_site_id 252 within 251 inlined_at 8 497 0
	.cv_inline_site_id 253 within 252 inlined_at 8 497 0
	.cv_inline_site_id 254 within 253 inlined_at 8 497 0
	.cv_inline_site_id 255 within 254 inlined_at 24 485 0
	.cv_inline_site_id 256 within 255 inlined_at 13 258 0
	.cv_loc	256 13 121 0
	movl	$1, %r8d
	jmp	__rust_dealloc
.Ltmp479:
.LBB24_2:
	.cv_loc	250 8 497 0
	retq
.Ltmp480:
.Lfunc_end24:

	.def	_ZN4core3ptr80drop_in_place$LT$alloc..sync..Arc$LT$std..thread..Packet$LT$$LP$$RP$$GT$$GT$$GT$17ha058be337863582dE;
	.scl	3;
	.type	32;
	.endef
	.section	.text,"xr",one_only,_ZN4core3ptr80drop_in_place$LT$alloc..sync..Arc$LT$std..thread..Packet$LT$$LP$$RP$$GT$$GT$$GT$17ha058be337863582dE
	.p2align	4, 0x90
_ZN4core3ptr80drop_in_place$LT$alloc..sync..Arc$LT$std..thread..Packet$LT$$LP$$RP$$GT$$GT$$GT$17ha058be337863582dE:
.Lfunc_begin25:
	.cv_func_id 257
	.cv_inline_site_id 258 within 257 inlined_at 8 497 0
	.cv_inline_site_id 259 within 258 inlined_at 19 1862 0
	.cv_inline_site_id 260 within 259 inlined_at 3 2540 0
	.cv_loc	260 3 3205 0
	lock		decq	(%rcx)
.Ltmp481:
	.cv_loc	258 19 1862 0
	jne	.LBB25_1
.Ltmp482:
	.cv_inline_site_id 261 within 258 inlined_at 19 66 0
	.cv_loc	261 3 3496 0
	#MEMBARRIER
	.cv_loc	258 19 1897 0
	jmp	_ZN5alloc4sync12Arc$LT$T$GT$9drop_slow17h12dcb8e2605acdf7E
.Ltmp483:
.LBB25_1:
	.cv_loc	257 8 497 0
	retq
.Ltmp484:
.Lfunc_end25:

	.def	_ZN4core3ptr81drop_in_place$LT$core..result..Result$LT$$LP$$RP$$C$std..io..error..Error$GT$$GT$17h21aec0316e1aa4b4E;
	.scl	3;
	.type	32;
	.endef
	.section	.text,"xr",one_only,_ZN4core3ptr81drop_in_place$LT$core..result..Result$LT$$LP$$RP$$C$std..io..error..Error$GT$$GT$17h21aec0316e1aa4b4E
	.p2align	4, 0x90
_ZN4core3ptr81drop_in_place$LT$core..result..Result$LT$$LP$$RP$$C$std..io..error..Error$GT$$GT$17h21aec0316e1aa4b4E:
.Lfunc_begin26:
	.cv_func_id 262
	.cv_loc	262 8 497 0
.seh_proc _ZN4core3ptr81drop_in_place$LT$core..result..Result$LT$$LP$$RP$$C$std..io..error..Error$GT$$GT$17h21aec0316e1aa4b4E
	.seh_handler __CxxFrameHandler3, @unwind, @except
	pushq	%rbp
	.seh_pushreg %rbp
	subq	$64, %rsp
	.seh_stackalloc 64
	leaq	64(%rsp), %rbp
	.seh_setframe %rbp, 64
	.seh_endprologue
.Ltmp487:
	movq	$-2, -8(%rbp)
	testq	%rcx, %rcx
	je	.LBB26_7
.Ltmp488:
	.cv_inline_site_id 263 within 262 inlined_at 8 497 0
	.cv_inline_site_id 264 within 263 inlined_at 8 497 0
	.cv_inline_site_id 265 within 264 inlined_at 8 497 0
	.cv_inline_site_id 266 within 265 inlined_at 7 236 0
	.cv_loc	266 7 251 0
	movl	%ecx, %eax
	andl	$3, %eax
	leaq	-2(%rax), %rdx
	cmpq	$2, %rdx
	jb	.LBB26_7
.Ltmp489:
	testq	%rax, %rax
	jne	.LBB26_3
.Ltmp490:
.LBB26_7:
	.cv_loc	262 8 497 0
	addq	$64, %rsp
	popq	%rbp
	retq
.LBB26_3:
.Ltmp491:
	.cv_inline_site_id 267 within 266 inlined_at 7 275 0
	.cv_inline_site_id 268 within 267 inlined_at 9 1280 0
	.cv_inline_site_id 269 within 268 inlined_at 9 1262 0
	.cv_loc	269 9 558 0
	leaq	-1(%rcx), %rax
.Ltmp492:
	movq	%rax, -32(%rbp)
.Ltmp493:
	.cv_inline_site_id 270 within 265 inlined_at 7 236 0
	.cv_inline_site_id 271 within 270 inlined_at 8 497 0
	.cv_loc	271 8 497 0
	movq	-1(%rcx), %rax
	movq	7(%rcx), %rdx
.Ltmp494:
	.cv_inline_site_id 272 within 271 inlined_at 8 497 0
	.cv_inline_site_id 273 within 272 inlined_at 8 497 0
	.cv_loc	273 8 497 0
.Ltmp485:
	movq	%rax, -16(%rbp)
.Ltmp495:
	movq	%rax, %rcx
.Ltmp496:
	movq	%rdx, -24(%rbp)
	callq	*(%rdx)
.Ltmp486:
.Ltmp497:
	.cv_inline_site_id 274 within 273 inlined_at 8 497 0
	.cv_inline_site_id 275 within 274 inlined_at 11 1221 0
	.cv_inline_site_id 276 within 275 inlined_at 12 199 0
	.cv_loc	276 10 394 0
	movq	-24(%rbp), %rax
.Ltmp498:
	movq	8(%rax), %rdx
.Ltmp499:
	.cv_inline_site_id 277 within 274 inlined_at 11 1222 0
	.cv_loc	277 13 255 0
	testq	%rdx, %rdx
	je	.LBB26_6
.Ltmp500:
	.cv_inline_site_id 278 within 277 inlined_at 13 258 0
	.cv_loc	278 13 121 0
	movq	16(%rax), %r8
.Ltmp501:
	movq	-16(%rbp), %rcx
.Ltmp502:
	callq	__rust_dealloc
.Ltmp503:
.LBB26_6:
	.cv_inline_site_id 279 within 271 inlined_at 8 497 0
	.cv_inline_site_id 280 within 279 inlined_at 11 1222 0
	.cv_inline_site_id 281 within 280 inlined_at 13 258 0
	.cv_loc	281 13 121 0
	movl	$24, %edx
	movl	$8, %r8d
	movq	-32(%rbp), %rcx
	addq	$64, %rsp
	popq	%rbp
	jmp	__rust_dealloc
.Ltmp504:
	.seh_handlerdata
	.long	($cppxdata$_ZN4core3ptr81drop_in_place$LT$core..result..Result$LT$$LP$$RP$$C$std..io..error..Error$GT$$GT$17h21aec0316e1aa4b4E)@IMGREL
	.section	.text,"xr",one_only,_ZN4core3ptr81drop_in_place$LT$core..result..Result$LT$$LP$$RP$$C$std..io..error..Error$GT$$GT$17h21aec0316e1aa4b4E
	.seh_endproc
	.def	"?dtor$8@?0?_ZN4core3ptr81drop_in_place$LT$core..result..Result$LT$$LP$$RP$$C$std..io..error..Error$GT$$GT$17h21aec0316e1aa4b4E@4HA";
	.scl	3;
	.type	32;
	.endef
	.p2align	4, 0x90
"?dtor$8@?0?_ZN4core3ptr81drop_in_place$LT$core..result..Result$LT$$LP$$RP$$C$std..io..error..Error$GT$$GT$17h21aec0316e1aa4b4E@4HA":
.seh_proc "?dtor$8@?0?_ZN4core3ptr81drop_in_place$LT$core..result..Result$LT$$LP$$RP$$C$std..io..error..Error$GT$$GT$17h21aec0316e1aa4b4E@4HA"
.LBB26_8:
	movq	%rdx, 16(%rsp)
	pushq	%rbp
	.seh_pushreg %rbp
	subq	$32, %rsp
	.seh_stackalloc 32
	leaq	64(%rdx), %rbp
	.seh_endprologue
	movq	-16(%rbp), %rcx
	movq	-24(%rbp), %rdx
.Ltmp505:
	.cv_loc	273 8 497 0
	callq	_ZN72_$LT$alloc..boxed..Box$LT$T$C$A$GT$$u20$as$u20$core..ops..drop..Drop$GT$4drop17h6741ce1b38ae4f6bE
	movq	-32(%rbp), %rcx
.Ltmp506:
	.cv_loc	271 8 497 0
	callq	_ZN72_$LT$alloc..boxed..Box$LT$T$C$A$GT$$u20$as$u20$core..ops..drop..Drop$GT$4drop17h37c1f7c24bbbad40E
	nop
	addq	$32, %rsp
	popq	%rbp
	retq
.Ltmp507:
.Lfunc_end26:
	.seh_handlerdata
	.section	.text,"xr",one_only,_ZN4core3ptr81drop_in_place$LT$core..result..Result$LT$$LP$$RP$$C$std..io..error..Error$GT$$GT$17h21aec0316e1aa4b4E
	.seh_endproc
	.section	.xdata,"dr",associative,_ZN4core3ptr81drop_in_place$LT$core..result..Result$LT$$LP$$RP$$C$std..io..error..Error$GT$$GT$17h21aec0316e1aa4b4E
	.p2align	2, 0x0
$cppxdata$_ZN4core3ptr81drop_in_place$LT$core..result..Result$LT$$LP$$RP$$C$std..io..error..Error$GT$$GT$17h21aec0316e1aa4b4E:
	.long	429065506
	.long	1
	.long	($stateUnwindMap$_ZN4core3ptr81drop_in_place$LT$core..result..Result$LT$$LP$$RP$$C$std..io..error..Error$GT$$GT$17h21aec0316e1aa4b4E)@IMGREL
	.long	0
	.long	0
	.long	3
	.long	($ip2state$_ZN4core3ptr81drop_in_place$LT$core..result..Result$LT$$LP$$RP$$C$std..io..error..Error$GT$$GT$17h21aec0316e1aa4b4E)@IMGREL
	.long	56
	.long	0
	.long	1
$stateUnwindMap$_ZN4core3ptr81drop_in_place$LT$core..result..Result$LT$$LP$$RP$$C$std..io..error..Error$GT$$GT$17h21aec0316e1aa4b4E:
	.long	-1
	.long	"?dtor$8@?0?_ZN4core3ptr81drop_in_place$LT$core..result..Result$LT$$LP$$RP$$C$std..io..error..Error$GT$$GT$17h21aec0316e1aa4b4E@4HA"@IMGREL
$ip2state$_ZN4core3ptr81drop_in_place$LT$core..result..Result$LT$$LP$$RP$$C$std..io..error..Error$GT$$GT$17h21aec0316e1aa4b4E:
	.long	.Lfunc_begin26@IMGREL
	.long	-1
	.long	.Ltmp485@IMGREL+1
	.long	0
	.long	.Ltmp486@IMGREL+1
	.long	-1
	.section	.text,"xr",one_only,_ZN4core3ptr81drop_in_place$LT$core..result..Result$LT$$LP$$RP$$C$std..io..error..Error$GT$$GT$17h21aec0316e1aa4b4E

	.def	_ZN4core3ptr85drop_in_place$LT$alloc..sync..ArcInner$LT$std..thread..Packet$LT$$LP$$RP$$GT$$GT$$GT$17hab44cc3f56671070E;
	.scl	3;
	.type	32;
	.endef
	.section	.text,"xr",one_only,_ZN4core3ptr85drop_in_place$LT$alloc..sync..ArcInner$LT$std..thread..Packet$LT$$LP$$RP$$GT$$GT$$GT$17hab44cc3f56671070E
	.p2align	4, 0x90
_ZN4core3ptr85drop_in_place$LT$alloc..sync..ArcInner$LT$std..thread..Packet$LT$$LP$$RP$$GT$$GT$$GT$17hab44cc3f56671070E:
.Lfunc_begin27:
	.cv_func_id 282
	.cv_loc	282 8 497 0
	addq	$16, %rcx
.Ltmp508:
	jmp	_ZN4core3ptr56drop_in_place$LT$std..thread..Packet$LT$$LP$$RP$$GT$$GT$17h7ce191c5b9525e48E
.Ltmp509:
.Lfunc_end27:

	.def	_ZN4core3ptr91drop_in_place$LT$alloc..boxed..Box$LT$dyn$u20$core..any..Any$u2b$core..marker..Send$GT$$GT$17h012b2babdf7ba6acE;
	.scl	3;
	.type	32;
	.endef
	.section	.text,"xr",one_only,_ZN4core3ptr91drop_in_place$LT$alloc..boxed..Box$LT$dyn$u20$core..any..Any$u2b$core..marker..Send$GT$$GT$17h012b2babdf7ba6acE
	.p2align	4, 0x90
_ZN4core3ptr91drop_in_place$LT$alloc..boxed..Box$LT$dyn$u20$core..any..Any$u2b$core..marker..Send$GT$$GT$17h012b2babdf7ba6acE:
.Lfunc_begin28:
	.cv_func_id 283
	.cv_loc	283 8 497 0
.seh_proc _ZN4core3ptr91drop_in_place$LT$alloc..boxed..Box$LT$dyn$u20$core..any..Any$u2b$core..marker..Send$GT$$GT$17h012b2babdf7ba6acE
	.seh_handler __CxxFrameHandler3, @unwind, @except
	pushq	%rbp
	.seh_pushreg %rbp
	subq	$64, %rsp
	.seh_stackalloc 64
	leaq	64(%rsp), %rbp
	.seh_setframe %rbp, 64
	.seh_endprologue
.Ltmp512:
	movq	$-2, -8(%rbp)
	movq	(%rcx), %rax
	movq	8(%rcx), %rdx
.Ltmp510:
	movq	%rax, -16(%rbp)
	movq	%rax, %rcx
.Ltmp513:
	movq	%rdx, -24(%rbp)
	callq	*(%rdx)
.Ltmp511:
.Ltmp514:
	.cv_inline_site_id 284 within 283 inlined_at 8 497 0
	.cv_inline_site_id 285 within 284 inlined_at 11 1221 0
	.cv_inline_site_id 286 within 285 inlined_at 12 199 0
	.cv_loc	286 10 394 0
	movq	-24(%rbp), %rax
.Ltmp515:
	movq	8(%rax), %rdx
.Ltmp516:
	.cv_inline_site_id 287 within 284 inlined_at 11 1222 0
	.cv_loc	287 13 255 0
	testq	%rdx, %rdx
	je	.LBB28_2
.Ltmp517:
	.cv_inline_site_id 288 within 287 inlined_at 13 258 0
	.cv_loc	288 13 121 0
	movq	16(%rax), %r8
.Ltmp518:
	movq	-16(%rbp), %rcx
.Ltmp519:
	addq	$64, %rsp
	popq	%rbp
	jmp	__rust_dealloc
.Ltmp520:
.LBB28_2:
	.cv_loc	283 8 497 0
	nop
	addq	$64, %rsp
	popq	%rbp
	retq
.Ltmp521:
	.seh_handlerdata
	.long	($cppxdata$_ZN4core3ptr91drop_in_place$LT$alloc..boxed..Box$LT$dyn$u20$core..any..Any$u2b$core..marker..Send$GT$$GT$17h012b2babdf7ba6acE)@IMGREL
	.section	.text,"xr",one_only,_ZN4core3ptr91drop_in_place$LT$alloc..boxed..Box$LT$dyn$u20$core..any..Any$u2b$core..marker..Send$GT$$GT$17h012b2babdf7ba6acE
	.seh_endproc
	.def	"?dtor$3@?0?_ZN4core3ptr91drop_in_place$LT$alloc..boxed..Box$LT$dyn$u20$core..any..Any$u2b$core..marker..Send$GT$$GT$17h012b2babdf7ba6acE@4HA";
	.scl	3;
	.type	32;
	.endef
	.p2align	4, 0x90
"?dtor$3@?0?_ZN4core3ptr91drop_in_place$LT$alloc..boxed..Box$LT$dyn$u20$core..any..Any$u2b$core..marker..Send$GT$$GT$17h012b2babdf7ba6acE@4HA":
.seh_proc "?dtor$3@?0?_ZN4core3ptr91drop_in_place$LT$alloc..boxed..Box$LT$dyn$u20$core..any..Any$u2b$core..marker..Send$GT$$GT$17h012b2babdf7ba6acE@4HA"
.LBB28_3:
	movq	%rdx, 16(%rsp)
	pushq	%rbp
	.seh_pushreg %rbp
	subq	$32, %rsp
	.seh_stackalloc 32
	leaq	64(%rdx), %rbp
	.seh_endprologue
	movq	-16(%rbp), %rcx
	movq	-24(%rbp), %rdx
	callq	_ZN72_$LT$alloc..boxed..Box$LT$T$C$A$GT$$u20$as$u20$core..ops..drop..Drop$GT$4drop17h6741ce1b38ae4f6bE
	nop
	addq	$32, %rsp
	popq	%rbp
	retq
.Ltmp522:
.Lfunc_end28:
	.seh_handlerdata
	.section	.text,"xr",one_only,_ZN4core3ptr91drop_in_place$LT$alloc..boxed..Box$LT$dyn$u20$core..any..Any$u2b$core..marker..Send$GT$$GT$17h012b2babdf7ba6acE
	.seh_endproc
	.section	.xdata,"dr",associative,_ZN4core3ptr91drop_in_place$LT$alloc..boxed..Box$LT$dyn$u20$core..any..Any$u2b$core..marker..Send$GT$$GT$17h012b2babdf7ba6acE
	.p2align	2, 0x0
$cppxdata$_ZN4core3ptr91drop_in_place$LT$alloc..boxed..Box$LT$dyn$u20$core..any..Any$u2b$core..marker..Send$GT$$GT$17h012b2babdf7ba6acE:
	.long	429065506
	.long	1
	.long	($stateUnwindMap$_ZN4core3ptr91drop_in_place$LT$alloc..boxed..Box$LT$dyn$u20$core..any..Any$u2b$core..marker..Send$GT$$GT$17h012b2babdf7ba6acE)@IMGREL
	.long	0
	.long	0
	.long	3
	.long	($ip2state$_ZN4core3ptr91drop_in_place$LT$alloc..boxed..Box$LT$dyn$u20$core..any..Any$u2b$core..marker..Send$GT$$GT$17h012b2babdf7ba6acE)@IMGREL
	.long	56
	.long	0
	.long	1
$stateUnwindMap$_ZN4core3ptr91drop_in_place$LT$alloc..boxed..Box$LT$dyn$u20$core..any..Any$u2b$core..marker..Send$GT$$GT$17h012b2babdf7ba6acE:
	.long	-1
	.long	"?dtor$3@?0?_ZN4core3ptr91drop_in_place$LT$alloc..boxed..Box$LT$dyn$u20$core..any..Any$u2b$core..marker..Send$GT$$GT$17h012b2babdf7ba6acE@4HA"@IMGREL
$ip2state$_ZN4core3ptr91drop_in_place$LT$alloc..boxed..Box$LT$dyn$u20$core..any..Any$u2b$core..marker..Send$GT$$GT$17h012b2babdf7ba6acE:
	.long	.Lfunc_begin28@IMGREL
	.long	-1
	.long	.Ltmp510@IMGREL+1
	.long	0
	.long	.Ltmp511@IMGREL+1
	.long	-1
	.section	.text,"xr",one_only,_ZN4core3ptr91drop_in_place$LT$alloc..boxed..Box$LT$dyn$u20$core..any..Any$u2b$core..marker..Send$GT$$GT$17h012b2babdf7ba6acE

	.def	_ZN4core3ptr95drop_in_place$LT$std..io..Write..write_fmt..Adapter$LT$std..sys..windows..stdio..Stderr$GT$$GT$17hd2dd8c8ab9fff3f7E;
	.scl	3;
	.type	32;
	.endef
	.section	.text,"xr",one_only,_ZN4core3ptr95drop_in_place$LT$std..io..Write..write_fmt..Adapter$LT$std..sys..windows..stdio..Stderr$GT$$GT$17hd2dd8c8ab9fff3f7E
	.p2align	4, 0x90
_ZN4core3ptr95drop_in_place$LT$std..io..Write..write_fmt..Adapter$LT$std..sys..windows..stdio..Stderr$GT$$GT$17hd2dd8c8ab9fff3f7E:
.Lfunc_begin29:
	.cv_func_id 289
	.cv_loc	289 8 497 0
.seh_proc _ZN4core3ptr95drop_in_place$LT$std..io..Write..write_fmt..Adapter$LT$std..sys..windows..stdio..Stderr$GT$$GT$17hd2dd8c8ab9fff3f7E
	.seh_handler __CxxFrameHandler3, @unwind, @except
	pushq	%rbp
	.seh_pushreg %rbp
	subq	$64, %rsp
	.seh_stackalloc 64
	leaq	64(%rsp), %rbp
	.seh_setframe %rbp, 64
	.seh_endprologue
.Ltmp525:
	movq	$-2, -8(%rbp)
	movq	8(%rcx), %rax
.Ltmp526:
	.cv_inline_site_id 290 within 289 inlined_at 8 497 0
	.cv_loc	290 8 497 0
	testq	%rax, %rax
	je	.LBB29_7
.Ltmp527:
	.cv_inline_site_id 291 within 290 inlined_at 8 497 0
	.cv_inline_site_id 292 within 291 inlined_at 8 497 0
	.cv_inline_site_id 293 within 292 inlined_at 8 497 0
	.cv_inline_site_id 294 within 293 inlined_at 7 236 0
	.cv_loc	294 7 251 0
	movl	%eax, %ecx
.Ltmp528:
	andl	$3, %ecx
	leaq	-2(%rcx), %rdx
	cmpq	$2, %rdx
	jb	.LBB29_7
.Ltmp529:
	testq	%rcx, %rcx
	jne	.LBB29_3
.Ltmp530:
.LBB29_7:
	.cv_loc	289 8 497 0
	addq	$64, %rsp
	popq	%rbp
	retq
.Ltmp531:
.LBB29_3:
	.cv_inline_site_id 295 within 294 inlined_at 7 275 0
	.cv_inline_site_id 296 within 295 inlined_at 9 1280 0
	.cv_inline_site_id 297 within 296 inlined_at 9 1262 0
	.cv_loc	297 9 558 0
	leaq	-1(%rax), %rcx
.Ltmp532:
	movq	%rcx, -32(%rbp)
.Ltmp533:
	.cv_inline_site_id 298 within 293 inlined_at 7 236 0
	.cv_inline_site_id 299 within 298 inlined_at 8 497 0
	.cv_loc	299 8 497 0
	movq	-1(%rax), %rcx
	movq	7(%rax), %rax
.Ltmp534:
	.cv_inline_site_id 300 within 299 inlined_at 8 497 0
	.cv_inline_site_id 301 within 300 inlined_at 8 497 0
	.cv_loc	301 8 497 0
.Ltmp523:
	movq	%rcx, -16(%rbp)
	movq	%rax, -24(%rbp)
.Ltmp535:
	callq	*(%rax)
.Ltmp524:
.Ltmp536:
	.cv_inline_site_id 302 within 301 inlined_at 8 497 0
	.cv_inline_site_id 303 within 302 inlined_at 11 1221 0
	.cv_inline_site_id 304 within 303 inlined_at 12 199 0
	.cv_loc	304 10 394 0
	movq	-24(%rbp), %rax
.Ltmp537:
	movq	8(%rax), %rdx
.Ltmp538:
	.cv_inline_site_id 305 within 302 inlined_at 11 1222 0
	.cv_loc	305 13 255 0
	testq	%rdx, %rdx
	je	.LBB29_6
.Ltmp539:
	.cv_inline_site_id 306 within 305 inlined_at 13 258 0
	.cv_loc	306 13 121 0
	movq	16(%rax), %r8
.Ltmp540:
	movq	-16(%rbp), %rcx
.Ltmp541:
	callq	__rust_dealloc
.Ltmp542:
.LBB29_6:
	.cv_inline_site_id 307 within 299 inlined_at 8 497 0
	.cv_inline_site_id 308 within 307 inlined_at 11 1222 0
	.cv_inline_site_id 309 within 308 inlined_at 13 258 0
	.cv_loc	309 13 121 0
	movl	$24, %edx
	movl	$8, %r8d
	movq	-32(%rbp), %rcx
	addq	$64, %rsp
	popq	%rbp
	jmp	__rust_dealloc
.Ltmp543:
	.seh_handlerdata
	.long	($cppxdata$_ZN4core3ptr95drop_in_place$LT$std..io..Write..write_fmt..Adapter$LT$std..sys..windows..stdio..Stderr$GT$$GT$17hd2dd8c8ab9fff3f7E)@IMGREL
	.section	.text,"xr",one_only,_ZN4core3ptr95drop_in_place$LT$std..io..Write..write_fmt..Adapter$LT$std..sys..windows..stdio..Stderr$GT$$GT$17hd2dd8c8ab9fff3f7E
	.seh_endproc
	.def	"?dtor$8@?0?_ZN4core3ptr95drop_in_place$LT$std..io..Write..write_fmt..Adapter$LT$std..sys..windows..stdio..Stderr$GT$$GT$17hd2dd8c8ab9fff3f7E@4HA";
	.scl	3;
	.type	32;
	.endef
	.p2align	4, 0x90
"?dtor$8@?0?_ZN4core3ptr95drop_in_place$LT$std..io..Write..write_fmt..Adapter$LT$std..sys..windows..stdio..Stderr$GT$$GT$17hd2dd8c8ab9fff3f7E@4HA":
.seh_proc "?dtor$8@?0?_ZN4core3ptr95drop_in_place$LT$std..io..Write..write_fmt..Adapter$LT$std..sys..windows..stdio..Stderr$GT$$GT$17hd2dd8c8ab9fff3f7E@4HA"
.LBB29_8:
	movq	%rdx, 16(%rsp)
	pushq	%rbp
	.seh_pushreg %rbp
	subq	$32, %rsp
	.seh_stackalloc 32
	leaq	64(%rdx), %rbp
	.seh_endprologue
	movq	-16(%rbp), %rcx
	movq	-24(%rbp), %rdx
.Ltmp544:
	.cv_loc	301 8 497 0
	callq	_ZN72_$LT$alloc..boxed..Box$LT$T$C$A$GT$$u20$as$u20$core..ops..drop..Drop$GT$4drop17h6741ce1b38ae4f6bE
	movq	-32(%rbp), %rcx
.Ltmp545:
	.cv_loc	299 8 497 0
	callq	_ZN72_$LT$alloc..boxed..Box$LT$T$C$A$GT$$u20$as$u20$core..ops..drop..Drop$GT$4drop17h37c1f7c24bbbad40E
	nop
	addq	$32, %rsp
	popq	%rbp
	retq
.Ltmp546:
.Lfunc_end29:
	.seh_handlerdata
	.section	.text,"xr",one_only,_ZN4core3ptr95drop_in_place$LT$std..io..Write..write_fmt..Adapter$LT$std..sys..windows..stdio..Stderr$GT$$GT$17hd2dd8c8ab9fff3f7E
	.seh_endproc
	.section	.xdata,"dr",associative,_ZN4core3ptr95drop_in_place$LT$std..io..Write..write_fmt..Adapter$LT$std..sys..windows..stdio..Stderr$GT$$GT$17hd2dd8c8ab9fff3f7E
	.p2align	2, 0x0
$cppxdata$_ZN4core3ptr95drop_in_place$LT$std..io..Write..write_fmt..Adapter$LT$std..sys..windows..stdio..Stderr$GT$$GT$17hd2dd8c8ab9fff3f7E:
	.long	429065506
	.long	1
	.long	($stateUnwindMap$_ZN4core3ptr95drop_in_place$LT$std..io..Write..write_fmt..Adapter$LT$std..sys..windows..stdio..Stderr$GT$$GT$17hd2dd8c8ab9fff3f7E)@IMGREL
	.long	0
	.long	0
	.long	3
	.long	($ip2state$_ZN4core3ptr95drop_in_place$LT$std..io..Write..write_fmt..Adapter$LT$std..sys..windows..stdio..Stderr$GT$$GT$17hd2dd8c8ab9fff3f7E)@IMGREL
	.long	56
	.long	0
	.long	1
$stateUnwindMap$_ZN4core3ptr95drop_in_place$LT$std..io..Write..write_fmt..Adapter$LT$std..sys..windows..stdio..Stderr$GT$$GT$17hd2dd8c8ab9fff3f7E:
	.long	-1
	.long	"?dtor$8@?0?_ZN4core3ptr95drop_in_place$LT$std..io..Write..write_fmt..Adapter$LT$std..sys..windows..stdio..Stderr$GT$$GT$17hd2dd8c8ab9fff3f7E@4HA"@IMGREL
$ip2state$_ZN4core3ptr95drop_in_place$LT$std..io..Write..write_fmt..Adapter$LT$std..sys..windows..stdio..Stderr$GT$$GT$17hd2dd8c8ab9fff3f7E:
	.long	.Lfunc_begin29@IMGREL
	.long	-1
	.long	.Ltmp523@IMGREL+1
	.long	0
	.long	.Ltmp524@IMGREL+1
	.long	-1
	.section	.text,"xr",one_only,_ZN4core3ptr95drop_in_place$LT$std..io..Write..write_fmt..Adapter$LT$std..sys..windows..stdio..Stderr$GT$$GT$17hd2dd8c8ab9fff3f7E

	.def	_ZN4core9panicking13assert_failed17h4aad53dee22165acE;
	.scl	3;
	.type	32;
	.endef
	.section	.text$unlikely,"xr",one_only,_ZN4core9panicking13assert_failed17h4aad53dee22165acE
	.p2align	4, 0x90
_ZN4core9panicking13assert_failed17h4aad53dee22165acE:
.Lfunc_begin30:
	.cv_func_id 310
	.cv_file	26 "/rustc/5680fa18feaa87f3ff04063800aec256c3d4b4be\\library\\core\\src\\panicking.rs" "572BAB57E7AE65F947DE368BCF152137D37EB6DA" 2
	.cv_loc	310 26 219 0
.seh_proc _ZN4core9panicking13assert_failed17h4aad53dee22165acE
	subq	$136, %rsp
	.seh_stackalloc 136
	.seh_endprologue
	leaq	__unnamed_6(%rip), %rax
.Ltmp547:
	movq	%rax, 64(%rsp)
	movq	%rcx, 72(%rsp)
.Ltmp548:
	.cv_loc	310 26 229 0
	movups	(%rdx), %xmm0
	movups	16(%rdx), %xmm1
	movups	32(%rdx), %xmm2
	movaps	%xmm2, 112(%rsp)
	movaps	%xmm1, 96(%rsp)
	movaps	%xmm0, 80(%rsp)
.Ltmp549:
	leaq	__unnamed_7(%rip), %rax
	movq	%rax, 48(%rsp)
	leaq	80(%rsp), %rax
	movq	%rax, 40(%rsp)
	leaq	__unnamed_8(%rip), %r8
	movq	%r8, 32(%rsp)
	leaq	64(%rsp), %rdx
.Ltmp550:
	leaq	72(%rsp), %r9
	xorl	%ecx, %ecx
	callq	_ZN4core9panicking19assert_failed_inner17h6f06a72d5775a9adE
	ud2
.Ltmp551:
.Lfunc_end30:
	.seh_endproc

	.def	_ZN50_$LT$$RF$mut$u20$W$u20$as$u20$core..fmt..Write$GT$10write_char17h7880ec467e354b79E;
	.scl	3;
	.type	32;
	.endef
	.section	.text,"xr",one_only,_ZN50_$LT$$RF$mut$u20$W$u20$as$u20$core..fmt..Write$GT$10write_char17h7880ec467e354b79E
	.p2align	4, 0x90
_ZN50_$LT$$RF$mut$u20$W$u20$as$u20$core..fmt..Write$GT$10write_char17h7880ec467e354b79E:
.Lfunc_begin31:
	.cv_func_id 311
	.cv_loc	311 15 202 0
.seh_proc _ZN50_$LT$$RF$mut$u20$W$u20$as$u20$core..fmt..Write$GT$10write_char17h7880ec467e354b79E
	subq	$40, %rsp
	.seh_stackalloc 40
	.seh_endprologue
.Ltmp552:
	.cv_loc	311 15 203 0
	movq	(%rcx), %rcx
.Ltmp553:
	.cv_inline_site_id 312 within 311 inlined_at 15 203 0
	.cv_loc	312 15 164 0
	movl	$0, 36(%rsp)
.Ltmp554:
	.cv_inline_site_id 313 within 312 inlined_at 15 164 0
	.cv_inline_site_id 314 within 313 inlined_at 17 633 0
	.cv_inline_site_id 315 within 314 inlined_at 17 1718 0
	.cv_loc	315 17 1690 0
	cmpl	$128, %edx
	jae	.LBB31_1
.Ltmp555:
	.cv_loc	314 17 1721 0
	movb	%dl, 36(%rsp)
	movl	$1, %r8d
	jmp	.LBB31_7
.Ltmp556:
.LBB31_1:
	.cv_loc	314 17 1724 0
	movl	%edx, %eax
.Ltmp557:
	.cv_loc	315 17 1692 0
	cmpl	$2048, %edx
	jae	.LBB31_2
.Ltmp558:
	.cv_loc	314 17 1724 0
	shrl	$6, %eax
	orb	$-64, %al
	movb	%al, 36(%rsp)
	.cv_loc	314 17 1725 0
	andb	$63, %dl
.Ltmp559:
	orb	$-128, %dl
	movb	%dl, 37(%rsp)
	movl	$2, %r8d
	jmp	.LBB31_7
.Ltmp560:
.LBB31_2:
	.cv_loc	315 17 1694 0
	cmpl	$65536, %edx
	jae	.LBB31_6
.Ltmp561:
	.cv_loc	314 17 1728 0
	shrl	$12, %eax
	orb	$-32, %al
	movb	%al, 36(%rsp)
	.cv_loc	314 17 1729 0
	movl	%edx, %eax
	shrl	$6, %eax
	andb	$63, %al
	orb	$-128, %al
	movb	%al, 37(%rsp)
	.cv_loc	314 17 1730 0
	andb	$63, %dl
.Ltmp562:
	orb	$-128, %dl
	movb	%dl, 38(%rsp)
	movl	$3, %r8d
	jmp	.LBB31_7
.Ltmp563:
.LBB31_6:
	.cv_loc	314 17 1733 0
	shrl	$18, %eax
	andb	$7, %al
	orb	$-16, %al
	movb	%al, 36(%rsp)
	.cv_loc	314 17 1734 0
	movl	%edx, %eax
	shrl	$12, %eax
	andb	$63, %al
	orb	$-128, %al
	movb	%al, 37(%rsp)
	.cv_loc	314 17 1735 0
	movl	%edx, %eax
	shrl	$6, %eax
	andb	$63, %al
	orb	$-128, %al
	movb	%al, 38(%rsp)
	.cv_loc	314 17 1736 0
	andb	$63, %dl
.Ltmp564:
	orb	$-128, %dl
	movb	%dl, 39(%rsp)
	movl	$4, %r8d
.Ltmp565:
.LBB31_7:
	.cv_loc	312 15 164 0
	leaq	36(%rsp), %rdx
	callq	_ZN80_$LT$std..io..Write..write_fmt..Adapter$LT$T$GT$$u20$as$u20$core..fmt..Write$GT$9write_str17hbbc4030ac5d6d221E
.Ltmp566:
	.cv_loc	311 15 204 0
	nop
	addq	$40, %rsp
	retq
.Ltmp567:
.Lfunc_end31:
	.seh_endproc

	.def	_ZN50_$LT$$RF$mut$u20$W$u20$as$u20$core..fmt..Write$GT$9write_fmt17h631090fd3ce2eda6E;
	.scl	3;
	.type	32;
	.endef
	.section	.text,"xr",one_only,_ZN50_$LT$$RF$mut$u20$W$u20$as$u20$core..fmt..Write$GT$9write_fmt17h631090fd3ce2eda6E
	.p2align	4, 0x90
_ZN50_$LT$$RF$mut$u20$W$u20$as$u20$core..fmt..Write$GT$9write_fmt17h631090fd3ce2eda6E:
.Lfunc_begin32:
	.cv_func_id 316
	.cv_loc	316 15 206 0
.seh_proc _ZN50_$LT$$RF$mut$u20$W$u20$as$u20$core..fmt..Write$GT$9write_fmt17h631090fd3ce2eda6E
	subq	$104, %rsp
	.seh_stackalloc 104
	.seh_endprologue
.Ltmp568:
	.cv_loc	316 15 207 0
	movq	(%rcx), %rax
	movups	(%rdx), %xmm0
	movups	16(%rdx), %xmm1
	movups	32(%rdx), %xmm2
	movaps	%xmm2, 80(%rsp)
	movaps	%xmm1, 64(%rsp)
	movaps	%xmm0, 48(%rsp)
	movq	%rax, 40(%rsp)
.Ltmp569:
	.cv_inline_site_id 317 within 316 inlined_at 15 207 0
	.cv_loc	317 15 192 0
	leaq	__unnamed_4(%rip), %rdx
.Ltmp570:
	leaq	40(%rsp), %rcx
.Ltmp571:
	leaq	48(%rsp), %r8
	callq	_ZN4core3fmt5write17h1f35b1184ff0f480E
.Ltmp572:
	.cv_loc	316 15 208 0
	nop
	addq	$104, %rsp
	retq
.Ltmp573:
.Lfunc_end32:
	.seh_endproc

	.def	_ZN50_$LT$$RF$mut$u20$W$u20$as$u20$core..fmt..Write$GT$9write_str17h787771c1b092a1e2E;
	.scl	3;
	.type	32;
	.endef
	.section	.text,"xr",one_only,_ZN50_$LT$$RF$mut$u20$W$u20$as$u20$core..fmt..Write$GT$9write_str17h787771c1b092a1e2E
	.p2align	4, 0x90
_ZN50_$LT$$RF$mut$u20$W$u20$as$u20$core..fmt..Write$GT$9write_str17h787771c1b092a1e2E:
.Lfunc_begin33:
	.cv_func_id 318
	.cv_loc	318 15 199 0
	movq	(%rcx), %rcx
.Ltmp574:
	jmp	_ZN80_$LT$std..io..Write..write_fmt..Adapter$LT$T$GT$$u20$as$u20$core..fmt..Write$GT$9write_str17hbbc4030ac5d6d221E
.Ltmp575:
.Lfunc_end33:

	.def	_ZN5alloc4sync12Arc$LT$T$GT$9drop_slow17h12dcb8e2605acdf7E;
	.scl	3;
	.type	32;
	.endef
	.section	.text,"xr",one_only,_ZN5alloc4sync12Arc$LT$T$GT$9drop_slow17h12dcb8e2605acdf7E
	.p2align	4, 0x90
_ZN5alloc4sync12Arc$LT$T$GT$9drop_slow17h12dcb8e2605acdf7E:
.Lfunc_begin34:
	.cv_func_id 319
	.cv_loc	319 19 1260 0
.seh_proc _ZN5alloc4sync12Arc$LT$T$GT$9drop_slow17h12dcb8e2605acdf7E
	pushq	%rsi
	.seh_pushreg %rsi
	subq	$32, %rsp
	.seh_stackalloc 32
	.seh_endprologue
	movq	%rcx, %rsi
.Ltmp576:
	.cv_inline_site_id 320 within 319 inlined_at 19 1263 0
	.cv_loc	320 19 1798 0
	addq	$16, %rcx
.Ltmp577:
	.cv_loc	319 19 1263 0
	callq	_ZN4core3ptr56drop_in_place$LT$std..thread..Packet$LT$$LP$$RP$$GT$$GT$17h7ce191c5b9525e48E
.Ltmp578:
	.cv_file	27 "/rustc/5680fa18feaa87f3ff04063800aec256c3d4b4be\\library\\alloc\\src\\rc.rs" "3BFF8028CDA1E1D0A8068D8AD8A9281E228A9321" 2
	.cv_inline_site_id 321 within 319 inlined_at 19 1266 0
	.cv_inline_site_id 322 within 321 inlined_at 10 987 0
	.cv_inline_site_id 323 within 322 inlined_at 8 497 0
	.cv_inline_site_id 324 within 323 inlined_at 19 2396 0
	.cv_inline_site_id 325 within 324 inlined_at 19 2243 0
	.cv_loc	325 27 2236 0
	cmpq	$-1, %rsi
.Ltmp579:
	.cv_loc	323 19 2396 0
	je	.LBB34_2
.Ltmp580:
	.cv_inline_site_id 326 within 323 inlined_at 19 2398 0
	.cv_inline_site_id 327 within 326 inlined_at 3 2540 0
	.cv_loc	327 3 3205 0
	lock		decq	8(%rsi)
.Ltmp581:
	.cv_loc	323 19 2398 0
	jne	.LBB34_2
.Ltmp582:
	.cv_inline_site_id 328 within 323 inlined_at 19 66 0
	.cv_loc	328 3 3496 0
	#MEMBARRIER
	.cv_inline_site_id 329 within 323 inlined_at 19 2400 0
	.cv_inline_site_id 330 within 329 inlined_at 13 258 0
	.cv_loc	330 13 121 0
	movl	$48, %edx
	movl	$8, %r8d
	movq	%rsi, %rcx
	addq	$32, %rsp
	popq	%rsi
.Ltmp583:
	jmp	__rust_dealloc
.Ltmp584:
.LBB34_2:
	.cv_loc	319 19 1267 0
	nop
	addq	$32, %rsp
	popq	%rsi
	retq
.Ltmp585:
.Lfunc_end34:
	.seh_endproc

	.def	_ZN5alloc4sync12Arc$LT$T$GT$9drop_slow17h35c08c6223537f27E;
	.scl	3;
	.type	32;
	.endef
	.section	.text,"xr",one_only,_ZN5alloc4sync12Arc$LT$T$GT$9drop_slow17h35c08c6223537f27E
	.p2align	4, 0x90
_ZN5alloc4sync12Arc$LT$T$GT$9drop_slow17h35c08c6223537f27E:
.Lfunc_begin35:
	.cv_func_id 331
	.cv_loc	331 19 1260 0
.seh_proc _ZN5alloc4sync12Arc$LT$T$GT$9drop_slow17h35c08c6223537f27E
	pushq	%rsi
	.seh_pushreg %rsi
	subq	$32, %rsp
	.seh_stackalloc 32
	.seh_endprologue
	movq	%rcx, %rsi
.Ltmp586:
	.cv_loc	331 19 1263 0
	movq	40(%rcx), %rdx
.Ltmp587:
	.cv_inline_site_id 332 within 331 inlined_at 19 1263 0
	.cv_inline_site_id 333 within 332 inlined_at 8 497 0
	.cv_inline_site_id 334 within 333 inlined_at 8 497 0
	.cv_inline_site_id 335 within 334 inlined_at 8 497 0
	.cv_inline_site_id 336 within 335 inlined_at 8 497 0
	.cv_inline_site_id 337 within 336 inlined_at 24 484 0
	.cv_loc	337 24 240 0
	testq	%rdx, %rdx
	je	.LBB35_2
.Ltmp588:
	.cv_loc	331 19 1263 0
	movq	32(%rsi), %rcx
.Ltmp589:
	.cv_inline_site_id 338 within 336 inlined_at 24 485 0
	.cv_inline_site_id 339 within 338 inlined_at 13 258 0
	.cv_loc	339 13 121 0
	movl	$1, %r8d
	callq	__rust_dealloc
.Ltmp590:
.LBB35_2:
	.cv_inline_site_id 340 within 331 inlined_at 19 1266 0
	.cv_inline_site_id 341 within 340 inlined_at 10 987 0
	.cv_inline_site_id 342 within 341 inlined_at 8 497 0
	.cv_inline_site_id 343 within 342 inlined_at 19 2396 0
	.cv_inline_site_id 344 within 343 inlined_at 19 2243 0
	.cv_loc	344 27 2236 0
	cmpq	$-1, %rsi
.Ltmp591:
	.cv_loc	342 19 2396 0
	je	.LBB35_4
.Ltmp592:
	.cv_inline_site_id 345 within 342 inlined_at 19 2398 0
	.cv_inline_site_id 346 within 345 inlined_at 3 2540 0
	.cv_loc	346 3 3205 0
	lock		decq	8(%rsi)
.Ltmp593:
	.cv_loc	342 19 2398 0
	jne	.LBB35_4
.Ltmp594:
	.cv_inline_site_id 347 within 342 inlined_at 19 66 0
	.cv_loc	347 3 3496 0
	#MEMBARRIER
	.cv_inline_site_id 348 within 342 inlined_at 19 2400 0
	.cv_inline_site_id 349 within 348 inlined_at 13 258 0
	.cv_loc	349 13 121 0
	movl	$56, %edx
	movl	$8, %r8d
	movq	%rsi, %rcx
	addq	$32, %rsp
	popq	%rsi
.Ltmp595:
	jmp	__rust_dealloc
.Ltmp596:
.LBB35_4:
	.cv_loc	331 19 1267 0
	nop
	addq	$32, %rsp
	popq	%rsi
	retq
.Ltmp597:
.Lfunc_end35:
	.seh_endproc

	.def	_ZN5alloc4sync12Arc$LT$T$GT$9drop_slow17hc17ef524d2429d0bE;
	.scl	3;
	.type	32;
	.endef
	.section	.text,"xr",one_only,_ZN5alloc4sync12Arc$LT$T$GT$9drop_slow17hc17ef524d2429d0bE
	.p2align	4, 0x90
_ZN5alloc4sync12Arc$LT$T$GT$9drop_slow17hc17ef524d2429d0bE:
.Lfunc_begin36:
	.cv_func_id 350
	.cv_loc	350 19 1260 0
.seh_proc _ZN5alloc4sync12Arc$LT$T$GT$9drop_slow17hc17ef524d2429d0bE
	pushq	%rsi
	.seh_pushreg %rsi
	subq	$32, %rsp
	.seh_stackalloc 32
	.seh_endprologue
	movq	%rcx, %rsi
.Ltmp598:
	.cv_loc	350 19 1263 0
	movq	16(%rcx), %rcx
.Ltmp599:
	.cv_inline_site_id 351 within 350 inlined_at 19 1263 0
	.cv_inline_site_id 352 within 351 inlined_at 8 497 0
	.cv_inline_site_id 353 within 352 inlined_at 8 497 0
	.cv_inline_site_id 354 within 353 inlined_at 8 497 0
	.cv_inline_site_id 355 within 354 inlined_at 8 497 0
	.cv_inline_site_id 356 within 355 inlined_at 19 1862 0
	.cv_inline_site_id 357 within 356 inlined_at 3 2540 0
	.cv_loc	357 3 3205 0
	lock		decq	(%rcx)
.Ltmp600:
	.cv_loc	355 19 1862 0
	jne	.LBB36_2
.Ltmp601:
	.cv_inline_site_id 358 within 355 inlined_at 19 66 0
	.cv_loc	358 3 3496 0
	#MEMBARRIER
	.cv_loc	355 19 1897 0
	callq	_ZN5alloc4sync12Arc$LT$T$GT$9drop_slow17hf6180cbef32ec201E
.Ltmp602:
.LBB36_2:
	.cv_inline_site_id 359 within 350 inlined_at 19 1266 0
	.cv_inline_site_id 360 within 359 inlined_at 10 987 0
	.cv_inline_site_id 361 within 360 inlined_at 8 497 0
	.cv_inline_site_id 362 within 361 inlined_at 19 2396 0
	.cv_inline_site_id 363 within 362 inlined_at 19 2243 0
	.cv_loc	363 27 2236 0
	cmpq	$-1, %rsi
.Ltmp603:
	.cv_loc	361 19 2396 0
	je	.LBB36_4
.Ltmp604:
	.cv_inline_site_id 364 within 361 inlined_at 19 2398 0
	.cv_inline_site_id 365 within 364 inlined_at 3 2540 0
	.cv_loc	365 3 3205 0
	lock		decq	8(%rsi)
.Ltmp605:
	.cv_loc	361 19 2398 0
	jne	.LBB36_4
.Ltmp606:
	.cv_inline_site_id 366 within 361 inlined_at 19 66 0
	.cv_loc	366 3 3496 0
	#MEMBARRIER
	.cv_inline_site_id 367 within 361 inlined_at 19 2400 0
	.cv_inline_site_id 368 within 367 inlined_at 13 258 0
	.cv_loc	368 13 121 0
	movl	$40, %edx
	movl	$8, %r8d
	movq	%rsi, %rcx
	addq	$32, %rsp
	popq	%rsi
.Ltmp607:
	jmp	__rust_dealloc
.Ltmp608:
.LBB36_4:
	.cv_loc	350 19 1267 0
	nop
	addq	$32, %rsp
	popq	%rsi
	retq
.Ltmp609:
.Lfunc_end36:
	.seh_endproc

	.def	_ZN5alloc4sync12Arc$LT$T$GT$9drop_slow17hf6180cbef32ec201E;
	.scl	3;
	.type	32;
	.endef
	.section	.text,"xr",one_only,_ZN5alloc4sync12Arc$LT$T$GT$9drop_slow17hf6180cbef32ec201E
	.p2align	4, 0x90
_ZN5alloc4sync12Arc$LT$T$GT$9drop_slow17hf6180cbef32ec201E:
.Lfunc_begin37:
	.cv_func_id 369
	.cv_loc	369 19 1260 0
.seh_proc _ZN5alloc4sync12Arc$LT$T$GT$9drop_slow17hf6180cbef32ec201E
	pushq	%rsi
	.seh_pushreg %rsi
	subq	$32, %rsp
	.seh_stackalloc 32
	.seh_endprologue
	movq	%rcx, %rsi
.Ltmp610:
	.cv_loc	369 19 1263 0
	movq	24(%rcx), %rcx
.Ltmp611:
	.cv_inline_site_id 370 within 369 inlined_at 19 1263 0
	.cv_inline_site_id 371 within 370 inlined_at 8 497 0
	.cv_loc	371 8 497 0
	testq	%rcx, %rcx
	je	.LBB37_3
.Ltmp612:
	.cv_loc	369 19 1263 0
	movq	32(%rsi), %rdx
.Ltmp613:
	.cv_file	28 "/rustc/5680fa18feaa87f3ff04063800aec256c3d4b4be\\library\\alloc\\src\\ffi\\c_str.rs" "2BC14F11CEE42D06E91D7A4669036CB68F32326D" 2
	.cv_inline_site_id 372 within 371 inlined_at 8 497 0
	.cv_inline_site_id 373 within 372 inlined_at 8 497 0
	.cv_loc	373 28 703 0
	movb	$0, (%rcx)
.Ltmp614:
	.cv_inline_site_id 374 within 372 inlined_at 8 497 0
	.cv_inline_site_id 375 within 374 inlined_at 8 497 0
	.cv_inline_site_id 376 within 375 inlined_at 11 1222 0
	.cv_loc	376 13 255 0
	testq	%rdx, %rdx
	je	.LBB37_3
.Ltmp615:
	.cv_inline_site_id 377 within 376 inlined_at 13 258 0
	.cv_loc	377 13 121 0
	movl	$1, %r8d
	callq	__rust_dealloc
.Ltmp616:
.LBB37_3:
	.cv_inline_site_id 378 within 369 inlined_at 19 1266 0
	.cv_inline_site_id 379 within 378 inlined_at 10 987 0
	.cv_inline_site_id 380 within 379 inlined_at 8 497 0
	.cv_inline_site_id 381 within 380 inlined_at 19 2396 0
	.cv_inline_site_id 382 within 381 inlined_at 19 2243 0
	.cv_loc	382 27 2236 0
	cmpq	$-1, %rsi
.Ltmp617:
	.cv_loc	380 19 2396 0
	je	.LBB37_5
.Ltmp618:
	.cv_inline_site_id 383 within 380 inlined_at 19 2398 0
	.cv_inline_site_id 384 within 383 inlined_at 3 2540 0
	.cv_loc	384 3 3205 0
	lock		decq	8(%rsi)
.Ltmp619:
	.cv_loc	380 19 2398 0
	jne	.LBB37_5
.Ltmp620:
	.cv_inline_site_id 385 within 380 inlined_at 19 66 0
	.cv_loc	385 3 3496 0
	#MEMBARRIER
	.cv_inline_site_id 386 within 380 inlined_at 19 2400 0
	.cv_inline_site_id 387 within 386 inlined_at 13 258 0
	.cv_loc	387 13 121 0
	movl	$48, %edx
	movl	$8, %r8d
	movq	%rsi, %rcx
	addq	$32, %rsp
	popq	%rsi
.Ltmp621:
	jmp	__rust_dealloc
.Ltmp622:
.LBB37_5:
	.cv_loc	369 19 1267 0
	nop
	addq	$32, %rsp
	popq	%rsi
	retq
.Ltmp623:
.Lfunc_end37:
	.seh_endproc

	.def	_ZN67_$LT$alloc..boxed..Box$LT$T$C$A$GT$$u20$as$u20$core..fmt..Debug$GT$3fmt17h50a02306976cc34aE;
	.scl	3;
	.type	32;
	.endef
	.section	.text,"xr",one_only,_ZN67_$LT$alloc..boxed..Box$LT$T$C$A$GT$$u20$as$u20$core..fmt..Debug$GT$3fmt17h50a02306976cc34aE
	.p2align	4, 0x90
_ZN67_$LT$alloc..boxed..Box$LT$T$C$A$GT$$u20$as$u20$core..fmt..Debug$GT$3fmt17h50a02306976cc34aE:
.Lfunc_begin38:
	.cv_func_id 388
	.cv_loc	388 11 1889 0
	.cv_loc	388 11 1890 0
	movq	%rdx, %r8
.Ltmp624:
	movq	(%rcx), %rax
	movq	8(%rcx), %rdx
.Ltmp625:
	movq	%rax, %rcx
.Ltmp626:
	jmp	_ZN82_$LT$dyn$u20$core..any..Any$u2b$core..marker..Send$u20$as$u20$core..fmt..Debug$GT$3fmt17h5c38db12939de8aaE
.Ltmp627:
.Lfunc_end38:

	.def	_ZN72_$LT$alloc..boxed..Box$LT$T$C$A$GT$$u20$as$u20$core..ops..drop..Drop$GT$4drop17h37c1f7c24bbbad40E;
	.scl	3;
	.type	32;
	.endef
	.section	.text,"xr",one_only,_ZN72_$LT$alloc..boxed..Box$LT$T$C$A$GT$$u20$as$u20$core..ops..drop..Drop$GT$4drop17h37c1f7c24bbbad40E
	.p2align	4, 0x90
_ZN72_$LT$alloc..boxed..Box$LT$T$C$A$GT$$u20$as$u20$core..ops..drop..Drop$GT$4drop17h37c1f7c24bbbad40E:
.Lfunc_begin39:
	.cv_func_id 389
	.cv_inline_site_id 390 within 389 inlined_at 11 1222 0
	.cv_inline_site_id 391 within 390 inlined_at 13 258 0
	.cv_loc	391 13 121 0
	movl	$24, %edx
	movl	$8, %r8d
	jmp	__rust_dealloc
.Ltmp628:
.Lfunc_end39:

	.def	_ZN72_$LT$alloc..boxed..Box$LT$T$C$A$GT$$u20$as$u20$core..ops..drop..Drop$GT$4drop17h6741ce1b38ae4f6bE;
	.scl	3;
	.type	32;
	.endef
	.section	.text,"xr",one_only,_ZN72_$LT$alloc..boxed..Box$LT$T$C$A$GT$$u20$as$u20$core..ops..drop..Drop$GT$4drop17h6741ce1b38ae4f6bE
	.p2align	4, 0x90
_ZN72_$LT$alloc..boxed..Box$LT$T$C$A$GT$$u20$as$u20$core..ops..drop..Drop$GT$4drop17h6741ce1b38ae4f6bE:
.Lfunc_begin40:
	.cv_func_id 392
	.cv_loc	392 11 1215 0
	.cv_inline_site_id 393 within 392 inlined_at 11 1221 0
	.cv_inline_site_id 394 within 393 inlined_at 12 199 0
	.cv_loc	394 10 394 0
	movq	%rdx, %rax
.Ltmp629:
	movq	8(%rdx), %rdx
.Ltmp630:
	.cv_inline_site_id 395 within 392 inlined_at 11 1222 0
	.cv_loc	395 13 255 0
	testq	%rdx, %rdx
	je	.LBB40_1
.Ltmp631:
	.cv_inline_site_id 396 within 395 inlined_at 13 258 0
	.cv_loc	396 13 121 0
	movq	16(%rax), %r8
.Ltmp632:
	jmp	__rust_dealloc
.Ltmp633:
.LBB40_1:
	.cv_loc	392 11 1224 0
	retq
.Ltmp634:
.Lfunc_end40:

	.def	_ZN80_$LT$std..io..Write..write_fmt..Adapter$LT$T$GT$$u20$as$u20$core..fmt..Write$GT$9write_str17hbbc4030ac5d6d221E;
	.scl	3;
	.type	32;
	.endef
	.section	.text,"xr",one_only,_ZN80_$LT$std..io..Write..write_fmt..Adapter$LT$T$GT$$u20$as$u20$core..fmt..Write$GT$9write_str17hbbc4030ac5d6d221E
	.p2align	4, 0x90
_ZN80_$LT$std..io..Write..write_fmt..Adapter$LT$T$GT$$u20$as$u20$core..fmt..Write$GT$9write_str17hbbc4030ac5d6d221E:
.Lfunc_begin41:
	.cv_func_id 397
	.cv_loc	397 6 1702 0
.seh_proc _ZN80_$LT$std..io..Write..write_fmt..Adapter$LT$T$GT$$u20$as$u20$core..fmt..Write$GT$9write_str17hbbc4030ac5d6d221E
	.seh_handler __CxxFrameHandler3, @unwind, @except
	pushq	%rbp
	.seh_pushreg %rbp
	pushq	%r15
	.seh_pushreg %r15
	pushq	%r14
	.seh_pushreg %r14
	pushq	%r13
	.seh_pushreg %r13
	pushq	%r12
	.seh_pushreg %r12
	pushq	%rsi
	.seh_pushreg %rsi
	pushq	%rdi
	.seh_pushreg %rdi
	pushq	%rbx
	.seh_pushreg %rbx
	subq	$104, %rsp
	.seh_stackalloc 104
	leaq	96(%rsp), %rbp
	.seh_setframe %rbp, 96
	.seh_endprologue
	movq	$-2, (%rbp)
	movq	%r8, %rsi
	movq	%rdx, %rdi
.Ltmp643:
	movq	%rcx, -32(%rbp)
.Ltmp644:
	.cv_loc	397 6 1703 0
	movq	(%rcx), %rbx
	leaq	-56(%rbp), %r14
	leaq	.LJTI41_0(%rip), %r12
.Ltmp645:
	.p2align	4, 0x90
.LBB41_1:
	.cv_file	29 "/rustc/5680fa18feaa87f3ff04063800aec256c3d4b4be\\library\\core\\src\\slice\\mod.rs" "A58EDC3ECC52B0CEE23313F8B0B2E7668E2B28FC" 2
	.cv_inline_site_id 398 within 397 inlined_at 6 1703 0
	.cv_inline_site_id 399 within 398 inlined_at 6 1573 0
	.cv_loc	399 29 158 0
	testq	%rsi, %rsi
.Ltmp646:
	.cv_loc	398 6 1573 0
	je	.LBB41_13
.Ltmp647:
	.cv_loc	398 6 1574 0
	movq	%r14, %rcx
	movq	%rbx, %rdx
	movq	%rdi, %r8
	movq	%rsi, %r9
	callq	_ZN67_$LT$std..sys..windows..stdio..Stderr$u20$as$u20$std..io..Write$GT$5write17h6814433c854c4f55E
	movq	-56(%rbp), %rdx
	testq	%rdx, %rdx
	je	.LBB41_3
.Ltmp648:
	.cv_loc	398 6 1582 0
	movq	-48(%rbp), %r9
.Ltmp649:
	.cv_inline_site_id 400 within 398 inlined_at 6 1582 0
	.cv_file	30 "/rustc/5680fa18feaa87f3ff04063800aec256c3d4b4be\\library\\std\\src\\io\\error.rs" "52DCE1969F674BE2ED28A937235795B9DC897958" 2
	.cv_inline_site_id 401 within 400 inlined_at 30 912 0
	.cv_inline_site_id 402 within 401 inlined_at 7 212 0
	.cv_loc	402 7 251 0
	movl	%r9d, %r15d
	andl	$3, %r15d
	movslq	(%r12,%r15,4), %rax
	addq	%r12, %rax
	jmpq	*%rax
.Ltmp650:
.LBB41_59:
	.cv_loc	400 30 916 0
	movzbl	16(%r9), %eax
	jmp	.LBB41_65
.Ltmp651:
	.p2align	4, 0x90
.LBB41_3:
	.cv_loc	398 6 1574 0
	movq	-48(%rbp), %rcx
	testq	%rcx, %rcx
	je	.LBB41_4
.Ltmp652:
	.cv_file	31 "/rustc/5680fa18feaa87f3ff04063800aec256c3d4b4be\\library\\core\\src\\slice\\index.rs" "90E9E621EBC533E07D2103B7A64DA36E2271DAD5" 2
	.cv_inline_site_id 403 within 398 inlined_at 6 1581 0
	.cv_inline_site_id 404 within 403 inlined_at 31 18 0
	.cv_loc	404 31 496 0
	movq	%rsi, %rax
	subq	%rcx, %rax
	jb	.LBB41_62
.Ltmp653:
	.cv_file	32 "/rustc/5680fa18feaa87f3ff04063800aec256c3d4b4be\\library\\core\\src\\ptr\\const_ptr.rs" "597D193CBD3BCA9C1AA3F10BA17E27ADED9585EA" 2
	.cv_inline_site_id 405 within 404 inlined_at 31 500 0
	.cv_inline_site_id 406 within 405 inlined_at 31 485 0
	.cv_inline_site_id 407 within 406 inlined_at 31 387 0
	.cv_loc	407 32 921 0
	addq	%rcx, %rdi
.Ltmp654:
	movq	%rax, %rsi
.Ltmp655:
	jmp	.LBB41_1
.Ltmp656:
.LBB41_57:
	.cv_loc	402 7 253 0
	movq	%rdx, -8(%rbp)
	movq	%r9, %r13
.Ltmp657:
	movq	%r9, %rcx
	shrq	$32, %rcx
.Ltmp658:
	.cv_loc	400 30 913 0
.Ltmp635:
	callq	_ZN3std3sys7windows17decode_error_kind17h4ee96e9cc0e56892E
.Ltmp659:
.Ltmp636:
	movq	%r13, %r9
	jmp	.LBB41_65
.Ltmp660:
.LBB41_15:
	.cv_loc	402 7 257 0
	movq	%r9, %rcx
	shrq	$32, %rcx
.Ltmp661:
	.cv_inline_site_id 408 within 402 inlined_at 7 258 0
	.cv_loc	408 7 302 0
	cmpl	$40, %ecx
	ja	.LBB41_55
.Ltmp662:
	xorl	%eax, %eax
	leaq	.LJTI41_1(%rip), %rdx
	movslq	(%rdx,%rcx,4), %rcx
	addq	%rdx, %rcx
	jmpq	*%rcx
.Ltmp663:
.LBB41_64:
	movb	$1, %al
	jmp	.LBB41_65
.Ltmp664:
.LBB41_60:
	.cv_loc	400 30 914 0
	movzbl	15(%r9), %eax
.Ltmp665:
.LBB41_65:
	.cv_inline_site_id 409 within 398 inlined_at 6 1582 0
	.cv_loc	409 30 175 0
	cmpb	$35, %al
.Ltmp666:
	.cv_loc	398 6 1582 0
	jne	.LBB41_5
.Ltmp667:
	.cv_inline_site_id 410 within 398 inlined_at 6 1585 0
	.cv_inline_site_id 411 within 410 inlined_at 8 497 0
	.cv_inline_site_id 412 within 411 inlined_at 8 497 0
	.cv_inline_site_id 413 within 412 inlined_at 7 236 0
	.cv_loc	413 7 251 0
	leaq	-2(%r15), %rax
	cmpq	$2, %rax
.Ltmp668:
	jb	.LBB41_1
.Ltmp669:
	testq	%r15, %r15
	je	.LBB41_1
.Ltmp670:
	.cv_inline_site_id 414 within 413 inlined_at 7 275 0
	.cv_inline_site_id 415 within 414 inlined_at 9 1280 0
	.cv_inline_site_id 416 within 415 inlined_at 9 1262 0
	.cv_loc	416 9 558 0
	leaq	-1(%r9), %rax
.Ltmp671:
	movq	%rax, -8(%rbp)
.Ltmp672:
	.cv_inline_site_id 417 within 412 inlined_at 7 236 0
	.cv_inline_site_id 418 within 417 inlined_at 8 497 0
	.cv_loc	418 8 497 0
	movq	-1(%r9), %rcx
	movq	7(%r9), %rax
.Ltmp673:
	.cv_inline_site_id 419 within 418 inlined_at 8 497 0
	.cv_inline_site_id 420 within 419 inlined_at 8 497 0
	.cv_loc	420 8 497 0
.Ltmp637:
	movq	%rcx, -16(%rbp)
	movq	%rax, -24(%rbp)
.Ltmp674:
	callq	*(%rax)
.Ltmp675:
.Ltmp638:
	.cv_inline_site_id 421 within 420 inlined_at 8 497 0
	.cv_inline_site_id 422 within 421 inlined_at 11 1221 0
	.cv_inline_site_id 423 within 422 inlined_at 12 199 0
	.cv_loc	423 10 394 0
	movq	-24(%rbp), %rax
.Ltmp676:
	movq	8(%rax), %rdx
.Ltmp677:
	.cv_inline_site_id 424 within 421 inlined_at 11 1222 0
	.cv_loc	424 13 255 0
	testq	%rdx, %rdx
	je	.LBB41_71
.Ltmp678:
	.cv_inline_site_id 425 within 424 inlined_at 13 258 0
	.cv_loc	425 13 121 0
	movq	16(%rax), %r8
.Ltmp679:
	movq	-16(%rbp), %rcx
.Ltmp680:
	callq	__rust_dealloc
.Ltmp681:
.LBB41_71:
	.cv_inline_site_id 426 within 418 inlined_at 8 497 0
	.cv_inline_site_id 427 within 426 inlined_at 11 1222 0
	.cv_inline_site_id 428 within 427 inlined_at 13 258 0
	.cv_loc	428 13 121 0
	movl	$24, %edx
	movl	$8, %r8d
	movq	-8(%rbp), %rcx
	callq	__rust_dealloc
	jmp	.LBB41_1
.Ltmp682:
.LBB41_52:
	movb	$37, %al
	jmp	.LBB41_65
.Ltmp683:
.LBB41_50:
	movb	$35, %al
	jmp	.LBB41_65
.Ltmp684:
.LBB41_53:
	movb	$36, %al
	jmp	.LBB41_65
.Ltmp685:
.LBB41_42:
	movb	$27, %al
	jmp	.LBB41_65
.Ltmp686:
.LBB41_49:
	movb	$34, %al
	jmp	.LBB41_65
.Ltmp687:
.LBB41_31:
	movb	$16, %al
	jmp	.LBB41_65
.Ltmp688:
.LBB41_29:
	movb	$14, %al
	jmp	.LBB41_65
.Ltmp689:
.LBB41_48:
	movb	$33, %al
	jmp	.LBB41_65
.Ltmp690:
.LBB41_26:
	movb	$11, %al
	jmp	.LBB41_65
.Ltmp691:
.LBB41_19:
	movb	$4, %al
	jmp	.LBB41_65
.Ltmp692:
.LBB41_56:
	movb	$40, %al
	jmp	.LBB41_65
.Ltmp693:
.LBB41_27:
	movb	$12, %al
	jmp	.LBB41_65
.Ltmp694:
.LBB41_24:
	movb	$9, %al
	jmp	.LBB41_65
.Ltmp695:
.LBB41_40:
	movb	$25, %al
	jmp	.LBB41_65
.Ltmp696:
.LBB41_39:
	movb	$24, %al
	jmp	.LBB41_65
.Ltmp697:
.LBB41_17:
	movb	$2, %al
	jmp	.LBB41_65
.Ltmp698:
.LBB41_30:
	movb	$15, %al
	jmp	.LBB41_65
.Ltmp699:
.LBB41_18:
	movb	$3, %al
	jmp	.LBB41_65
.Ltmp700:
.LBB41_22:
	movb	$7, %al
	jmp	.LBB41_65
.Ltmp701:
.LBB41_46:
	movb	$31, %al
	jmp	.LBB41_65
.Ltmp702:
.LBB41_32:
	movb	$17, %al
	jmp	.LBB41_65
.Ltmp703:
.LBB41_55:
	movb	$41, %al
	jmp	.LBB41_65
.Ltmp704:
.LBB41_35:
	movb	$20, %al
	jmp	.LBB41_65
.Ltmp705:
.LBB41_20:
	movb	$5, %al
	jmp	.LBB41_65
.Ltmp706:
.LBB41_36:
	movb	$21, %al
	jmp	.LBB41_65
.Ltmp707:
.LBB41_28:
	movb	$13, %al
	jmp	.LBB41_65
.Ltmp708:
.LBB41_21:
	movb	$6, %al
	jmp	.LBB41_65
.Ltmp709:
.LBB41_33:
	movb	$18, %al
	jmp	.LBB41_65
.Ltmp710:
.LBB41_25:
	movb	$10, %al
	jmp	.LBB41_65
.Ltmp711:
.LBB41_23:
	movb	$8, %al
	jmp	.LBB41_65
.Ltmp712:
.LBB41_45:
	movb	$30, %al
	jmp	.LBB41_65
.Ltmp713:
.LBB41_47:
	movb	$32, %al
	jmp	.LBB41_65
.Ltmp714:
.LBB41_37:
	movb	$22, %al
	jmp	.LBB41_65
.Ltmp715:
.LBB41_51:
	movb	$39, %al
	jmp	.LBB41_65
.Ltmp716:
.LBB41_34:
	movb	$19, %al
	jmp	.LBB41_65
.Ltmp717:
.LBB41_38:
	movb	$23, %al
	jmp	.LBB41_65
.Ltmp718:
.LBB41_43:
	movb	$28, %al
	jmp	.LBB41_65
.Ltmp719:
.LBB41_44:
	movb	$29, %al
	jmp	.LBB41_65
.Ltmp720:
.LBB41_54:
	movb	$38, %al
	jmp	.LBB41_65
.Ltmp721:
.LBB41_41:
	movb	$26, %al
	jmp	.LBB41_65
.Ltmp722:
.LBB41_4:
	leaq	__unnamed_9(%rip), %r9
.Ltmp723:
.LBB41_5:
	.cv_loc	397 6 1706 0
	movq	-32(%rbp), %r8
.Ltmp724:
	movq	8(%r8), %rax
.Ltmp725:
	.cv_inline_site_id 429 within 397 inlined_at 6 1706 0
	.cv_loc	429 8 497 0
	testq	%rax, %rax
	je	.LBB41_12
.Ltmp726:
	.cv_inline_site_id 430 within 429 inlined_at 8 497 0
	.cv_inline_site_id 431 within 430 inlined_at 8 497 0
	.cv_inline_site_id 432 within 431 inlined_at 8 497 0
	.cv_inline_site_id 433 within 432 inlined_at 7 236 0
	.cv_loc	433 7 251 0
	movl	%eax, %ecx
	andl	$3, %ecx
	leaq	-2(%rcx), %rdx
	cmpq	$2, %rdx
	jb	.LBB41_12
.Ltmp727:
	testq	%rcx, %rcx
	je	.LBB41_12
.Ltmp728:
	.cv_inline_site_id 434 within 433 inlined_at 7 275 0
	.cv_inline_site_id 435 within 434 inlined_at 9 1280 0
	.cv_inline_site_id 436 within 435 inlined_at 9 1262 0
	.cv_loc	436 9 558 0
	movq	%r9, -8(%rbp)
.Ltmp729:
	leaq	-1(%rax), %rcx
.Ltmp730:
	movq	%rcx, -24(%rbp)
.Ltmp731:
	.cv_inline_site_id 437 within 432 inlined_at 7 236 0
	.cv_inline_site_id 438 within 437 inlined_at 8 497 0
	.cv_loc	438 8 497 0
	movq	-1(%rax), %rcx
	movq	7(%rax), %rax
.Ltmp732:
	.cv_inline_site_id 439 within 438 inlined_at 8 497 0
	.cv_inline_site_id 440 within 439 inlined_at 8 497 0
	.cv_loc	440 8 497 0
.Ltmp641:
	movq	%rcx, -40(%rbp)
	movq	%rax, -16(%rbp)
.Ltmp733:
	callq	*(%rax)
.Ltmp642:
.Ltmp734:
	.cv_inline_site_id 441 within 440 inlined_at 8 497 0
	.cv_inline_site_id 442 within 441 inlined_at 11 1221 0
	.cv_inline_site_id 443 within 442 inlined_at 12 199 0
	.cv_loc	443 10 394 0
	movq	-16(%rbp), %rax
.Ltmp735:
	movq	8(%rax), %rdx
.Ltmp736:
	.cv_inline_site_id 444 within 441 inlined_at 11 1222 0
	.cv_loc	444 13 255 0
	testq	%rdx, %rdx
	je	.LBB41_11
.Ltmp737:
	.cv_inline_site_id 445 within 444 inlined_at 13 258 0
	.cv_loc	445 13 121 0
	movq	16(%rax), %r8
.Ltmp738:
	movq	-40(%rbp), %rcx
.Ltmp739:
	callq	__rust_dealloc
.Ltmp740:
.LBB41_11:
	.cv_inline_site_id 446 within 438 inlined_at 8 497 0
	.cv_inline_site_id 447 within 446 inlined_at 11 1222 0
	.cv_inline_site_id 448 within 447 inlined_at 13 258 0
	.cv_loc	448 13 121 0
	movl	$24, %edx
	movl	$8, %r8d
	movq	-24(%rbp), %rcx
	callq	__rust_dealloc
	movq	-32(%rbp), %r8
	movq	-8(%rbp), %r9
.Ltmp741:
.LBB41_12:
	.cv_loc	397 6 1706 0
	movq	%r9, 8(%r8)
.Ltmp742:
.LBB41_13:
	.cv_loc	399 29 158 0
	testq	%rsi, %rsi
	setne	%al
.Ltmp743:
	.cv_loc	397 6 1710 0
	addq	$104, %rsp
	popq	%rbx
.Ltmp744:
	popq	%rdi
.Ltmp745:
	popq	%rsi
.Ltmp746:
	popq	%r12
	popq	%r13
	popq	%r14
	popq	%r15
	popq	%rbp
	retq
.Ltmp747:
.LBB41_62:
	.cv_loc	404 31 497 0
.Ltmp639:
	movq	%rdx, -8(%rbp)
.Ltmp748:
	leaq	__unnamed_10(%rip), %r8
	movq	%rsi, %rdx
	callq	_ZN4core5slice5index26slice_start_index_len_fail17h0b70d7ff9d10b8feE
.Ltmp749:
.Ltmp640:
	ud2
.Ltmp750:
	.seh_handlerdata
	.long	($cppxdata$_ZN80_$LT$std..io..Write..write_fmt..Adapter$LT$T$GT$$u20$as$u20$core..fmt..Write$GT$9write_str17hbbc4030ac5d6d221E)@IMGREL
	.section	.text,"xr",one_only,_ZN80_$LT$std..io..Write..write_fmt..Adapter$LT$T$GT$$u20$as$u20$core..fmt..Write$GT$9write_str17hbbc4030ac5d6d221E
	.seh_endproc
	.def	"?dtor$73@?0?_ZN80_$LT$std..io..Write..write_fmt..Adapter$LT$T$GT$$u20$as$u20$core..fmt..Write$GT$9write_str17hbbc4030ac5d6d221E@4HA";
	.scl	3;
	.type	32;
	.endef
	.p2align	4, 0x90
"?dtor$73@?0?_ZN80_$LT$std..io..Write..write_fmt..Adapter$LT$T$GT$$u20$as$u20$core..fmt..Write$GT$9write_str17hbbc4030ac5d6d221E@4HA":
.seh_proc "?dtor$73@?0?_ZN80_$LT$std..io..Write..write_fmt..Adapter$LT$T$GT$$u20$as$u20$core..fmt..Write$GT$9write_str17hbbc4030ac5d6d221E@4HA"
.LBB41_73:
	movq	%rdx, 16(%rsp)
	pushq	%rbp
	.seh_pushreg %rbp
	pushq	%r15
	.seh_pushreg %r15
	pushq	%r14
	.seh_pushreg %r14
	pushq	%r13
	.seh_pushreg %r13
	pushq	%r12
	.seh_pushreg %r12
	pushq	%rsi
	.seh_pushreg %rsi
	pushq	%rdi
	.seh_pushreg %rdi
	pushq	%rbx
	.seh_pushreg %rbx
	subq	$40, %rsp
	.seh_stackalloc 40
	leaq	96(%rdx), %rbp
.Ltmp751:
	.seh_endprologue
	movq	-16(%rbp), %rcx
	movq	-24(%rbp), %rdx
.Ltmp752:
	.cv_loc	420 8 497 0
	callq	_ZN72_$LT$alloc..boxed..Box$LT$T$C$A$GT$$u20$as$u20$core..ops..drop..Drop$GT$4drop17h6741ce1b38ae4f6bE
	movq	-8(%rbp), %rcx
.Ltmp753:
	.cv_loc	418 8 497 0
	callq	_ZN72_$LT$alloc..boxed..Box$LT$T$C$A$GT$$u20$as$u20$core..ops..drop..Drop$GT$4drop17h37c1f7c24bbbad40E
	nop
	addq	$40, %rsp
	popq	%rbx
.Ltmp754:
	popq	%rdi
.Ltmp755:
	popq	%rsi
.Ltmp756:
	popq	%r12
	popq	%r13
	popq	%r14
	popq	%r15
	popq	%rbp
	retq
.Ltmp757:
	.seh_handlerdata
	.section	.text,"xr",one_only,_ZN80_$LT$std..io..Write..write_fmt..Adapter$LT$T$GT$$u20$as$u20$core..fmt..Write$GT$9write_str17hbbc4030ac5d6d221E
	.seh_endproc
	.def	"?dtor$74@?0?_ZN80_$LT$std..io..Write..write_fmt..Adapter$LT$T$GT$$u20$as$u20$core..fmt..Write$GT$9write_str17hbbc4030ac5d6d221E@4HA";
	.scl	3;
	.type	32;
	.endef
	.p2align	4, 0x90
"?dtor$74@?0?_ZN80_$LT$std..io..Write..write_fmt..Adapter$LT$T$GT$$u20$as$u20$core..fmt..Write$GT$9write_str17hbbc4030ac5d6d221E@4HA":
.seh_proc "?dtor$74@?0?_ZN80_$LT$std..io..Write..write_fmt..Adapter$LT$T$GT$$u20$as$u20$core..fmt..Write$GT$9write_str17hbbc4030ac5d6d221E@4HA"
.LBB41_74:
	movq	%rdx, 16(%rsp)
	pushq	%rbp
	.seh_pushreg %rbp
	pushq	%r15
	.seh_pushreg %r15
	pushq	%r14
	.seh_pushreg %r14
	pushq	%r13
	.seh_pushreg %r13
	pushq	%r12
	.seh_pushreg %r12
	pushq	%rsi
	.seh_pushreg %rsi
	pushq	%rdi
	.seh_pushreg %rdi
	pushq	%rbx
	.seh_pushreg %rbx
	subq	$40, %rsp
	.seh_stackalloc 40
	leaq	96(%rdx), %rbp
.Ltmp758:
	.seh_endprologue
	.cv_loc	398 6 1574 0
	cmpq	$0, -8(%rbp)
	.cv_loc	398 6 1585 0
	je	.LBB41_76
.Ltmp759:
	leaq	-48(%rbp), %rcx
	callq	_ZN4core3ptr42drop_in_place$LT$std..io..error..Error$GT$17hea0d4fdae7d1d80dE
.Ltmp760:
.LBB41_76:
	.cv_loc	398 6 1572 0
	nop
	addq	$40, %rsp
	popq	%rbx
.Ltmp761:
	popq	%rdi
.Ltmp762:
	popq	%rsi
.Ltmp763:
	popq	%r12
	popq	%r13
	popq	%r14
	popq	%r15
	popq	%rbp
	retq
.Ltmp764:
	.seh_handlerdata
	.section	.text,"xr",one_only,_ZN80_$LT$std..io..Write..write_fmt..Adapter$LT$T$GT$$u20$as$u20$core..fmt..Write$GT$9write_str17hbbc4030ac5d6d221E
	.seh_endproc
	.def	"?dtor$77@?0?_ZN80_$LT$std..io..Write..write_fmt..Adapter$LT$T$GT$$u20$as$u20$core..fmt..Write$GT$9write_str17hbbc4030ac5d6d221E@4HA";
	.scl	3;
	.type	32;
	.endef
	.p2align	4, 0x90
"?dtor$77@?0?_ZN80_$LT$std..io..Write..write_fmt..Adapter$LT$T$GT$$u20$as$u20$core..fmt..Write$GT$9write_str17hbbc4030ac5d6d221E@4HA":
.seh_proc "?dtor$77@?0?_ZN80_$LT$std..io..Write..write_fmt..Adapter$LT$T$GT$$u20$as$u20$core..fmt..Write$GT$9write_str17hbbc4030ac5d6d221E@4HA"
.LBB41_77:
	movq	%rdx, 16(%rsp)
	pushq	%rbp
	.seh_pushreg %rbp
	pushq	%r15
	.seh_pushreg %r15
	pushq	%r14
	.seh_pushreg %r14
	pushq	%r13
	.seh_pushreg %r13
	pushq	%r12
	.seh_pushreg %r12
	pushq	%rsi
	.seh_pushreg %rsi
	pushq	%rdi
	.seh_pushreg %rdi
	pushq	%rbx
	.seh_pushreg %rbx
	subq	$40, %rsp
	.seh_stackalloc 40
	leaq	96(%rdx), %rbp
.Ltmp765:
	.seh_endprologue
	movq	-40(%rbp), %rcx
	movq	-16(%rbp), %rdx
.Ltmp766:
	.cv_loc	440 8 497 0
	callq	_ZN72_$LT$alloc..boxed..Box$LT$T$C$A$GT$$u20$as$u20$core..ops..drop..Drop$GT$4drop17h6741ce1b38ae4f6bE
	movq	-24(%rbp), %rcx
.Ltmp767:
	.cv_loc	438 8 497 0
	callq	_ZN72_$LT$alloc..boxed..Box$LT$T$C$A$GT$$u20$as$u20$core..ops..drop..Drop$GT$4drop17h37c1f7c24bbbad40E
	movq	-32(%rbp), %rax
	movq	-8(%rbp), %rcx
.Ltmp768:
	.cv_loc	397 6 1706 0
	movq	%rcx, 8(%rax)
.Ltmp769:
	.cv_loc	397 6 1702 0
	addq	$40, %rsp
	popq	%rbx
	popq	%rdi
	popq	%rsi
	popq	%r12
	popq	%r13
	popq	%r14
	popq	%r15
	popq	%rbp
	retq
.Ltmp770:
.Lfunc_end41:
	.p2align	2, 0x90
.LJTI41_0:
	.long	.LBB41_59-.LJTI41_0
	.long	.LBB41_60-.LJTI41_0
	.long	.LBB41_57-.LJTI41_0
	.long	.LBB41_15-.LJTI41_0
.LJTI41_1:
	.long	.LBB41_65-.LJTI41_1
	.long	.LBB41_64-.LJTI41_1
	.long	.LBB41_17-.LJTI41_1
	.long	.LBB41_18-.LJTI41_1
	.long	.LBB41_19-.LJTI41_1
	.long	.LBB41_20-.LJTI41_1
	.long	.LBB41_21-.LJTI41_1
	.long	.LBB41_22-.LJTI41_1
	.long	.LBB41_23-.LJTI41_1
	.long	.LBB41_24-.LJTI41_1
	.long	.LBB41_25-.LJTI41_1
	.long	.LBB41_26-.LJTI41_1
	.long	.LBB41_27-.LJTI41_1
	.long	.LBB41_28-.LJTI41_1
	.long	.LBB41_29-.LJTI41_1
	.long	.LBB41_30-.LJTI41_1
	.long	.LBB41_31-.LJTI41_1
	.long	.LBB41_32-.LJTI41_1
	.long	.LBB41_33-.LJTI41_1
	.long	.LBB41_34-.LJTI41_1
	.long	.LBB41_35-.LJTI41_1
	.long	.LBB41_36-.LJTI41_1
	.long	.LBB41_37-.LJTI41_1
	.long	.LBB41_38-.LJTI41_1
	.long	.LBB41_39-.LJTI41_1
	.long	.LBB41_40-.LJTI41_1
	.long	.LBB41_41-.LJTI41_1
	.long	.LBB41_42-.LJTI41_1
	.long	.LBB41_43-.LJTI41_1
	.long	.LBB41_44-.LJTI41_1
	.long	.LBB41_45-.LJTI41_1
	.long	.LBB41_46-.LJTI41_1
	.long	.LBB41_47-.LJTI41_1
	.long	.LBB41_48-.LJTI41_1
	.long	.LBB41_49-.LJTI41_1
	.long	.LBB41_50-.LJTI41_1
	.long	.LBB41_53-.LJTI41_1
	.long	.LBB41_52-.LJTI41_1
	.long	.LBB41_54-.LJTI41_1
	.long	.LBB41_51-.LJTI41_1
	.long	.LBB41_56-.LJTI41_1
	.seh_handlerdata
	.section	.text,"xr",one_only,_ZN80_$LT$std..io..Write..write_fmt..Adapter$LT$T$GT$$u20$as$u20$core..fmt..Write$GT$9write_str17hbbc4030ac5d6d221E
	.seh_endproc
	.section	.xdata,"dr",associative,_ZN80_$LT$std..io..Write..write_fmt..Adapter$LT$T$GT$$u20$as$u20$core..fmt..Write$GT$9write_str17hbbc4030ac5d6d221E
	.p2align	2, 0x0
$cppxdata$_ZN80_$LT$std..io..Write..write_fmt..Adapter$LT$T$GT$$u20$as$u20$core..fmt..Write$GT$9write_str17hbbc4030ac5d6d221E:
	.long	429065506
	.long	3
	.long	($stateUnwindMap$_ZN80_$LT$std..io..Write..write_fmt..Adapter$LT$T$GT$$u20$as$u20$core..fmt..Write$GT$9write_str17hbbc4030ac5d6d221E)@IMGREL
	.long	0
	.long	0
	.long	6
	.long	($ip2state$_ZN80_$LT$std..io..Write..write_fmt..Adapter$LT$T$GT$$u20$as$u20$core..fmt..Write$GT$9write_str17hbbc4030ac5d6d221E)@IMGREL
	.long	96
	.long	0
	.long	1
$stateUnwindMap$_ZN80_$LT$std..io..Write..write_fmt..Adapter$LT$T$GT$$u20$as$u20$core..fmt..Write$GT$9write_str17hbbc4030ac5d6d221E:
	.long	-1
	.long	"?dtor$74@?0?_ZN80_$LT$std..io..Write..write_fmt..Adapter$LT$T$GT$$u20$as$u20$core..fmt..Write$GT$9write_str17hbbc4030ac5d6d221E@4HA"@IMGREL
	.long	-1
	.long	"?dtor$73@?0?_ZN80_$LT$std..io..Write..write_fmt..Adapter$LT$T$GT$$u20$as$u20$core..fmt..Write$GT$9write_str17hbbc4030ac5d6d221E@4HA"@IMGREL
	.long	-1
	.long	"?dtor$77@?0?_ZN80_$LT$std..io..Write..write_fmt..Adapter$LT$T$GT$$u20$as$u20$core..fmt..Write$GT$9write_str17hbbc4030ac5d6d221E@4HA"@IMGREL
$ip2state$_ZN80_$LT$std..io..Write..write_fmt..Adapter$LT$T$GT$$u20$as$u20$core..fmt..Write$GT$9write_str17hbbc4030ac5d6d221E:
	.long	.Lfunc_begin41@IMGREL
	.long	-1
	.long	.Ltmp635@IMGREL+1
	.long	0
	.long	.Ltmp637@IMGREL+1
	.long	1
	.long	.Ltmp641@IMGREL+1
	.long	2
	.long	.Ltmp639@IMGREL+1
	.long	0
	.long	.Ltmp640@IMGREL+1
	.long	-1
	.section	.text,"xr",one_only,_ZN80_$LT$std..io..Write..write_fmt..Adapter$LT$T$GT$$u20$as$u20$core..fmt..Write$GT$9write_str17hbbc4030ac5d6d221E

	.def	_ZN10concurrent4main17h5995471d045fea41E;
	.scl	3;
	.type	32;
	.endef
	.section	.text,"xr",one_only,_ZN10concurrent4main17h5995471d045fea41E
	.p2align	4, 0x90
_ZN10concurrent4main17h5995471d045fea41E:
.Lfunc_begin42:
	.cv_func_id 449
	.cv_loc	449 1 44 0
.seh_proc _ZN10concurrent4main17h5995471d045fea41E
	.seh_handler __CxxFrameHandler3, @unwind, @except
	pushq	%rbp
	.seh_pushreg %rbp
	pushq	%r15
	.seh_pushreg %r15
	pushq	%r14
	.seh_pushreg %r14
	pushq	%r13
	.seh_pushreg %r13
	pushq	%r12
	.seh_pushreg %r12
	pushq	%rsi
	.seh_pushreg %rsi
	pushq	%rdi
	.seh_pushreg %rdi
	pushq	%rbx
	.seh_pushreg %rbx
	subq	$328, %rsp
	.seh_stackalloc 328
	leaq	128(%rsp), %rbp
	.seh_setframe %rbp, 128
	movaps	%xmm6, 176(%rbp)
	.seh_savexmm %xmm6, 304
	.seh_endprologue
	movq	$-2, 168(%rbp)
	leaq	64(%rbp), %rbx
	leaq	-8(%rbp), %rsi
	xorps	%xmm6, %xmm6
	movq	$-1, %r14
	leaq	48(%rbp), %r12
	jmp	.LBB42_1
	.p2align	4, 0x90
.LBB42_162:
.Ltmp849:
	.cv_file	33 "/rustc/5680fa18feaa87f3ff04063800aec256c3d4b4be\\library\\core\\src\\result.rs" "B8796BFD39553E2D41DFAFB6FCF5514D54688E9F" 2
	.cv_inline_site_id 450 within 449 inlined_at 1 52 0
	.cv_loc	450 33 1074 0
	testq	%rdi, %rdi
	jne	.LBB42_163
.Ltmp850:
.LBB42_1:
	.cv_inline_site_id 451 within 449 inlined_at 1 46 0
	.cv_loc	451 1 21 0
	movb	$0, _ZN10concurrent4DATA17h12318adf91d9460fE.0(%rip)
.Ltmp851:
	.cv_inline_site_id 452 within 451 inlined_at 1 23 0
	.cv_inline_site_id 453 within 452 inlined_at 3 527 0
	.cv_loc	453 3 3138 0
	movb	$0, _ZN10concurrent5READY17ha9d70e9a654afec8E.0(%rip)
.Ltmp852:
	.cv_inline_site_id 454 within 449 inlined_at 1 48 0
	.cv_inline_site_id 455 within 454 inlined_at 1 27 0
	.cv_loc	455 18 686 0
	movq	%rsi, %rcx
	callq	_ZN3std6thread7Builder3new17hd02401d3af6670a7E
.Ltmp853:
	.cv_inline_site_id 456 within 455 inlined_at 18 686 0
	.cv_inline_site_id 457 within 456 inlined_at 18 389 0
	.cv_inline_site_id 458 within 457 inlined_at 18 457 0
	.cv_loc	458 18 471 0
	movq	8(%rbp), %rax
.Ltmp854:
	movdqu	16(%rbp), %xmm0
.Ltmp855:
	movdqa	%xmm0, -32(%rbp)
.Ltmp856:
	.cv_file	34 "/rustc/5680fa18feaa87f3ff04063800aec256c3d4b4be\\library\\core\\src\\option.rs" "07397BCC9F1117B86FBEE5CDB065D42C53B4A722" 2
	.cv_inline_site_id 459 within 458 inlined_at 18 473 0
	.cv_loc	459 34 977 0
	cmpq	$0, -8(%rbp)
	movq	%rax, 40(%rbp)
.Ltmp857:
	je	.LBB42_2
.Ltmp858:
	.cv_loc	458 18 471 0
	movq	(%rbp), %r13
.Ltmp859:
	.cv_inline_site_id 460 within 458 inlined_at 18 475 0
	.cv_loc	460 34 1074 0
	testq	%rax, %rax
	je	.LBB42_6
.Ltmp860:
.LBB42_10:
	.cv_loc	460 34 1075 0
	movq	%rax, -80(%rbp)
	movdqa	-32(%rbp), %xmm0
	movdqu	%xmm0, -72(%rbp)
	movb	$0, 166(%rbp)
	movb	$1, 165(%rbp)
	.cv_file	35 "/rustc/5680fa18feaa87f3ff04063800aec256c3d4b4be\\library\\core\\src\\convert\\mod.rs" "105AB4FFCF955E719D1AD775A7C1F67BD5642767" 2
	.cv_inline_site_id 461 within 460 inlined_at 34 1075 0
	.cv_inline_site_id 462 within 461 inlined_at 18 476 0
	.cv_inline_site_id 463 within 462 inlined_at 28 316 0
	.cv_inline_site_id 464 within 463 inlined_at 28 268 0
	.cv_loc	464 35 716 0
.Ltmp773:
.Ltmp861:
	leaq	96(%rbp), %rcx
	leaq	-80(%rbp), %rdx
	callq	_ZN5alloc6string104_$LT$impl$u20$core..convert..From$LT$alloc..string..String$GT$$u20$for$u20$alloc..vec..Vec$LT$u8$GT$$GT$4from17hb2915d33ba073417E
.Ltmp862:
.Ltmp774:
	.cv_inline_site_id 465 within 463 inlined_at 28 269 0
	.cv_file	36 "/rustc/5680fa18feaa87f3ff04063800aec256c3d4b4be\\library\\alloc\\src\\vec\\mod.rs" "BD6BC5AA085F9688EF1CF4F10D1A12B7D650CF50" 2
	.cv_inline_site_id 466 within 465 inlined_at 36 2610 0
	.cv_inline_site_id 467 within 466 inlined_at 36 1240 0
	.cv_loc	467 24 223 0
	movq	96(%rbp), %rax
.Ltmp863:
	.cv_loc	465 36 2610 0
	movq	112(%rbp), %rdi
.Ltmp864:
	.cv_file	37 "/rustc/5680fa18feaa87f3ff04063800aec256c3d4b4be\\library\\core\\src\\slice\\memchr.rs" "BB93837F8AA9D3DAC60D66E2C3530802A3A77089" 2
	.cv_loc	465 37 43 0
	cmpq	$16, %rdi
	movq	%rax, 136(%rbp)
.Ltmp865:
	jae	.LBB42_12
.Ltmp866:
	.cv_inline_site_id 468 within 465 inlined_at 37 44 0
	.cv_loc	468 37 56 0
	xorl	%edx, %edx
.Ltmp867:
	testq	%rdi, %rdi
	je	.LBB42_18
.Ltmp868:
	.p2align	4, 0x90
.LBB42_14:
	.cv_loc	468 37 57 0
	cmpb	$0, (%rax,%rdx)
	je	.LBB42_15
.Ltmp869:
	.cv_loc	468 37 61 0
	incq	%rdx
.Ltmp870:
	.cv_loc	468 37 56 0
	cmpq	%rdx, %rdi
	jne	.LBB42_14
.Ltmp871:
	movq	%rdi, %rdx
.Ltmp872:
.LBB42_18:
	.cv_loc	463 28 269 0
	xorl	%eax, %eax
	testq	%rax, %rax
	je	.LBB42_20
	jmp	.LBB42_25
.Ltmp873:
	.p2align	4, 0x90
.LBB42_2:
	.cv_inline_site_id 469 within 459 inlined_at 34 979 0
	.cv_loc	469 5 250 0
	movb	$1, 166(%rbp)
	movb	$1, 165(%rbp)
.Ltmp771:
.Ltmp874:
	callq	_ZN3std10sys_common6thread9min_stack17hecd4d8d88827a8a8E
.Ltmp875:
.Ltmp772:
	.cv_loc	460 34 1074 0
	movq	%rax, %r13
	movq	40(%rbp), %rax
.Ltmp876:
	testq	%rax, %rax
	jne	.LBB42_10
.Ltmp877:
.LBB42_6:
	xorl	%eax, %eax
	jmp	.LBB42_7
.Ltmp878:
	.p2align	4, 0x90
.LBB42_12:
	.cv_loc	465 37 47 0
	movb	$1, 135(%rbp)
.Ltmp775:
.Ltmp879:
	xorl	%ecx, %ecx
	movq	%rax, %rdx
	movq	%rdi, %r8
	callq	_ZN4core5slice6memchr14memchr_aligned17h74b79c2fd0fc0ae1E
.Ltmp880:
.Ltmp776:
	.cv_loc	463 28 269 0
	testq	%rax, %rax
	jne	.LBB42_25
.Ltmp881:
.LBB42_20:
	.cv_loc	463 28 271 0
	movq	112(%rbp), %rax
	movq	%rax, 64(%rbp)
	movdqu	96(%rbp), %xmm0
	movdqa	%xmm0, 48(%rbp)
	movb	$0, 135(%rbp)
.Ltmp779:
	movq	%r12, %rcx
	callq	_ZN5alloc3ffi5c_str7CString19_from_vec_unchecked17hb848222c60345431E
.Ltmp882:
.Ltmp780:
.LBB42_7:
	.cv_loc	458 18 475 0
	movb	$0, 166(%rbp)
	movb	$1, 165(%rbp)
.Ltmp781:
	movq	%rax, %rcx
	callq	_ZN3std6thread6Thread3new17h6d4a218426357110E
.Ltmp782:
.Ltmp883:
	.cv_inline_site_id 470 within 458 inlined_at 18 478 0
	.cv_inline_site_id 471 within 470 inlined_at 18 1191 0
	.cv_file	38 "/rustc/5680fa18feaa87f3ff04063800aec256c3d4b4be\\library\\core\\src\\pin.rs" "D25C46FFDE4D6CF5E62CDD1C189839DC2172F13A" 2
	.cv_inline_site_id 472 within 471 inlined_at 38 418 0
	.cv_inline_site_id 473 within 472 inlined_at 19 1512 0
	.cv_inline_site_id 474 within 473 inlined_at 3 2510 0
	.cv_loc	474 3 3186 0
	lock		incq	(%rax)
.Ltmp884:
	.cv_loc	472 19 1529 0
	jle	.LBB42_9
.Ltmp885:
	.cv_inline_site_id 475 within 458 inlined_at 18 480 0
	.cv_loc	475 19 372 0
	movq	%rax, 136(%rbp)
.Ltmp886:
	movups	%xmm6, (%rbx)
	.cv_loc	475 19 369 0
	movq	$1, 48(%rbp)
	movq	$1, 56(%rbp)
.Ltmp887:
	.cv_inline_site_id 476 within 475 inlined_at 19 369 0
	.cv_inline_site_id 477 within 476 inlined_at 11 217 0
	.cv_inline_site_id 478 within 477 inlined_at 13 334 0
	.cv_inline_site_id 479 within 478 inlined_at 13 245 0
	.cv_inline_site_id 480 within 479 inlined_at 13 185 0
	.cv_inline_site_id 481 within 480 inlined_at 13 100 0
	.cv_loc	481 8 1543 0
	movzbl	__rust_no_alloc_shim_is_unstable(%rip), %eax
.Ltmp888:
	.cv_loc	480 13 102 0
	movl	$48, %ecx
	movl	$8, %edx
	callq	__rust_alloc
.Ltmp889:
	.cv_loc	477 13 334 0
	testq	%rax, %rax
	je	.LBB42_29
.Ltmp890:
	.cv_loc	476 11 217 0
	movups	48(%rbp), %xmm0
	movups	64(%rbp), %xmm1
	movups	80(%rbp), %xmm2
	movups	%xmm2, 32(%rax)
	movups	%xmm1, 16(%rax)
	movups	%xmm0, (%rax)
.Ltmp891:
	.cv_inline_site_id 482 within 458 inlined_at 18 485 0
	.cv_inline_site_id 483 within 482 inlined_at 19 1512 0
	.cv_inline_site_id 484 within 483 inlined_at 3 2510 0
	.cv_loc	484 3 3186 0
	lock		incq	(%rax)
.Ltmp892:
	.cv_loc	482 19 1529 0
	jle	.LBB42_9
.Ltmp893:
	.cv_loc	458 18 487 0
	movq	%rax, 120(%rbp)
.Ltmp894:
	movb	$1, 158(%rbp)
.Ltmp783:
.Ltmp895:
	xorl	%ecx, %ecx
	callq	_ZN3std2io5stdio18set_output_capture17hb599e222d9372a03E
.Ltmp784:
.Ltmp896:
	.cv_inline_site_id 485 within 458 inlined_at 18 488 0
	.cv_loc	485 34 1966 0
	testq	%rax, %rax
	je	.LBB42_35
.Ltmp897:
	.cv_inline_site_id 486 within 485 inlined_at 34 1967 0
	.cv_inline_site_id 487 within 486 inlined_at 19 1512 0
	.cv_inline_site_id 488 within 487 inlined_at 3 2510 0
	.cv_loc	488 3 3186 0
	lock		incq	(%rax)
.Ltmp898:
	.cv_loc	486 19 1529 0
	jle	.LBB42_9
.Ltmp899:
.LBB42_35:
	.cv_loc	458 18 488 0
	movb	$0, 157(%rbp)
	movb	$1, 156(%rbp)
.Ltmp785:
	movq	%rax, 32(%rbp)
.Ltmp900:
	movq	%rax, %rcx
	callq	_ZN3std2io5stdio18set_output_capture17hb599e222d9372a03E
.Ltmp786:
.Ltmp901:
	.cv_inline_site_id 489 within 458 inlined_at 18 488 0
	.cv_loc	489 8 497 0
	testq	%rax, %rax
	je	.LBB42_39
.Ltmp902:
	.cv_inline_site_id 490 within 489 inlined_at 8 497 0
	.cv_inline_site_id 491 within 490 inlined_at 8 497 0
	.cv_inline_site_id 492 within 491 inlined_at 19 1862 0
	.cv_inline_site_id 493 within 492 inlined_at 3 2540 0
	.cv_loc	493 3 3205 0
	lock		decq	(%rax)
.Ltmp903:
	.cv_loc	491 19 1862 0
	jne	.LBB42_39
.Ltmp904:
	.cv_inline_site_id 494 within 491 inlined_at 19 66 0
	.cv_loc	494 3 3496 0
	#MEMBARRIER
	.cv_loc	491 19 1897 0
	movq	%rax, %rcx
	callq	_ZN5alloc4sync12Arc$LT$T$GT$9drop_slow17h35c08c6223537f27E
.Ltmp905:
.LBB42_39:
	.cv_loc	458 18 515 0
	movq	136(%rbp), %rax
.Ltmp906:
	movq	%rax, 96(%rbp)
	movq	32(%rbp), %rax
	movq	%rax, 112(%rbp)
	movq	120(%rbp), %rax
	movq	%rax, 104(%rbp)
.Ltmp907:
	.cv_loc	458 18 544 0
	movq	16(%rax), %rcx
	testq	%rcx, %rcx
	je	.LBB42_41
.Ltmp908:
	.cv_inline_site_id 495 within 458 inlined_at 18 545 0
	.cv_loc	495 19 1543 0
	addq	$16, %rcx
	movb	$1, 161(%rbp)
.Ltmp909:
	.cv_loc	458 18 545 0
.Ltmp787:
	callq	_ZN3std6thread6scoped9ScopeData29increment_num_running_threads17heba71d12afbaf010E
.Ltmp910:
.Ltmp788:
.LBB42_41:
	.cv_loc	458 18 566 0
	movq	112(%rbp), %rax
	movq	%rax, 64(%rbp)
	movq	96(%rbp), %rax
	movq	%rax, 48(%rbp)
	movq	104(%rbp), %rax
	movq	%rax, 56(%rbp)
.Ltmp911:
	.cv_inline_site_id 496 within 458 inlined_at 18 566 0
	.cv_inline_site_id 497 within 496 inlined_at 11 217 0
	.cv_inline_site_id 498 within 497 inlined_at 13 334 0
	.cv_inline_site_id 499 within 498 inlined_at 13 245 0
	.cv_inline_site_id 500 within 499 inlined_at 13 185 0
	.cv_inline_site_id 501 within 500 inlined_at 13 100 0
	.cv_loc	501 8 1543 0
	movzbl	__rust_no_alloc_shim_is_unstable(%rip), %eax
.Ltmp912:
	.cv_loc	500 13 102 0
	movl	$24, %ecx
	movl	$8, %edx
	callq	__rust_alloc
.Ltmp913:
	.cv_loc	497 13 334 0
	testq	%rax, %rax
	je	.LBB42_42
.Ltmp914:
	.cv_loc	496 11 217 0
	movq	112(%rbp), %rcx
	movq	%rcx, 16(%rax)
	movups	96(%rbp), %xmm0
	movups	%xmm0, (%rax)
	movb	$0, 161(%rbp)
.Ltmp915:
	.cv_loc	458 18 563 0
.Ltmp789:
	movq	%r13, %rcx
	movq	%rax, %rdx
	leaq	__unnamed_11(%rip), %r8
	callq	_ZN3std3sys7windows6thread6Thread3new17he800403d384e6915E
.Ltmp790:
.Ltmp916:
	movq	%rdx, %rdi
.Ltmp917:
	.cv_inline_site_id 502 within 458 inlined_at 18 563 0
	.cv_loc	502 33 1948 0
	testq	%rax, %rax
	jne	.LBB42_46
.Ltmp918:
	.cv_inline_site_id 503 within 455 inlined_at 18 686 0
	.cv_loc	503 33 1032 0
	movq	136(%rbp), %rax
.Ltmp919:
	movq	%rax, -56(%rbp)
	movq	120(%rbp), %rax
	movq	%rax, -48(%rbp)
	movq	%rdi, -40(%rbp)
	movb	$1, 162(%rbp)
.Ltmp920:
	.cv_inline_site_id 504 within 449 inlined_at 1 49 0
	.cv_inline_site_id 505 within 504 inlined_at 1 36 0
	.cv_loc	505 18 686 0
.Ltmp795:
	movq	%rsi, %rcx
	callq	_ZN3std6thread7Builder3new17hd02401d3af6670a7E
.Ltmp796:
.Ltmp921:
	.cv_inline_site_id 506 within 505 inlined_at 18 686 0
	.cv_inline_site_id 507 within 506 inlined_at 18 389 0
	.cv_inline_site_id 508 within 507 inlined_at 18 457 0
	.cv_loc	508 18 471 0
	movq	8(%rbp), %rax
.Ltmp922:
	movdqu	16(%rbp), %xmm0
.Ltmp923:
	movdqa	%xmm0, -32(%rbp)
.Ltmp924:
	.cv_inline_site_id 509 within 508 inlined_at 18 473 0
	.cv_loc	509 34 977 0
	cmpq	$0, -8(%rbp)
	movq	%rax, 40(%rbp)
.Ltmp925:
	je	.LBB42_72
.Ltmp926:
	.cv_loc	508 18 471 0
	movq	(%rbp), %r13
.Ltmp927:
	.cv_inline_site_id 510 within 508 inlined_at 18 475 0
	.cv_loc	510 34 1074 0
	testq	%rax, %rax
	je	.LBB42_76
.Ltmp928:
.LBB42_81:
	.cv_loc	510 34 1075 0
	movq	%rax, -80(%rbp)
	movdqa	-32(%rbp), %xmm0
	movdqu	%xmm0, -72(%rbp)
	movb	$0, 164(%rbp)
	movb	$1, 163(%rbp)
	.cv_inline_site_id 511 within 510 inlined_at 34 1075 0
	.cv_inline_site_id 512 within 511 inlined_at 18 476 0
	.cv_inline_site_id 513 within 512 inlined_at 28 316 0
	.cv_inline_site_id 514 within 513 inlined_at 28 268 0
	.cv_loc	514 35 716 0
.Ltmp799:
.Ltmp929:
	leaq	96(%rbp), %rcx
	leaq	-80(%rbp), %rdx
	callq	_ZN5alloc6string104_$LT$impl$u20$core..convert..From$LT$alloc..string..String$GT$$u20$for$u20$alloc..vec..Vec$LT$u8$GT$$GT$4from17hb2915d33ba073417E
.Ltmp930:
.Ltmp800:
	.cv_inline_site_id 515 within 513 inlined_at 28 269 0
	.cv_inline_site_id 516 within 515 inlined_at 36 2610 0
	.cv_inline_site_id 517 within 516 inlined_at 36 1240 0
	.cv_loc	517 24 223 0
	movq	96(%rbp), %rax
.Ltmp931:
	.cv_loc	515 36 2610 0
	movq	112(%rbp), %rdi
.Ltmp932:
	.cv_loc	515 37 43 0
	cmpq	$16, %rdi
	movq	%rax, 136(%rbp)
.Ltmp933:
	jae	.LBB42_83
.Ltmp934:
	.cv_inline_site_id 518 within 515 inlined_at 37 44 0
	.cv_loc	518 37 56 0
	xorl	%edx, %edx
.Ltmp935:
	testq	%rdi, %rdi
	je	.LBB42_89
.Ltmp936:
	.p2align	4, 0x90
.LBB42_85:
	.cv_loc	518 37 57 0
	cmpb	$0, (%rax,%rdx)
	je	.LBB42_86
.Ltmp937:
	.cv_loc	518 37 61 0
	incq	%rdx
.Ltmp938:
	.cv_loc	518 37 56 0
	cmpq	%rdx, %rdi
	jne	.LBB42_85
.Ltmp939:
	movq	%rdi, %rdx
.Ltmp940:
.LBB42_89:
	.cv_loc	513 28 269 0
	xorl	%eax, %eax
	testq	%rax, %rax
	je	.LBB42_91
	jmp	.LBB42_96
.Ltmp941:
	.p2align	4, 0x90
.LBB42_72:
	.cv_inline_site_id 519 within 509 inlined_at 34 979 0
	.cv_loc	519 5 250 0
	movb	$1, 164(%rbp)
	movb	$1, 163(%rbp)
.Ltmp797:
.Ltmp942:
	callq	_ZN3std10sys_common6thread9min_stack17hecd4d8d88827a8a8E
.Ltmp943:
.Ltmp798:
	.cv_loc	510 34 1074 0
	movq	%rax, %r13
	movq	40(%rbp), %rax
.Ltmp944:
	testq	%rax, %rax
	jne	.LBB42_81
.Ltmp945:
.LBB42_76:
	xorl	%eax, %eax
	jmp	.LBB42_77
.Ltmp946:
	.p2align	4, 0x90
.LBB42_83:
	.cv_loc	515 37 47 0
	movb	$1, 134(%rbp)
.Ltmp801:
.Ltmp947:
	xorl	%ecx, %ecx
	movq	%rax, %rdx
	movq	%rdi, %r8
	callq	_ZN4core5slice6memchr14memchr_aligned17h74b79c2fd0fc0ae1E
.Ltmp948:
.Ltmp802:
	.cv_loc	513 28 269 0
	testq	%rax, %rax
	jne	.LBB42_96
.Ltmp949:
.LBB42_91:
	.cv_loc	513 28 271 0
	movq	112(%rbp), %rax
	movq	%rax, 64(%rbp)
	movdqu	96(%rbp), %xmm0
	movdqa	%xmm0, 48(%rbp)
	movb	$0, 134(%rbp)
.Ltmp805:
	movq	%r12, %rcx
	callq	_ZN5alloc3ffi5c_str7CString19_from_vec_unchecked17hb848222c60345431E
.Ltmp950:
.Ltmp806:
.LBB42_77:
	.cv_loc	508 18 475 0
	movb	$0, 164(%rbp)
	movb	$1, 163(%rbp)
.Ltmp807:
	movq	%rax, %rcx
	callq	_ZN3std6thread6Thread3new17h6d4a218426357110E
.Ltmp808:
.Ltmp951:
	.cv_inline_site_id 520 within 508 inlined_at 18 478 0
	.cv_inline_site_id 521 within 520 inlined_at 18 1191 0
	.cv_inline_site_id 522 within 521 inlined_at 38 418 0
	.cv_inline_site_id 523 within 522 inlined_at 19 1512 0
	.cv_inline_site_id 524 within 523 inlined_at 3 2510 0
	.cv_loc	524 3 3186 0
	lock		incq	(%rax)
.Ltmp952:
	jle	.LBB42_9
.Ltmp953:
	.cv_inline_site_id 525 within 508 inlined_at 18 480 0
	.cv_loc	525 19 372 0
	movq	%rax, 136(%rbp)
.Ltmp954:
	movups	%xmm6, (%rbx)
	.cv_loc	525 19 369 0
	movq	$1, 48(%rbp)
	movq	$1, 56(%rbp)
.Ltmp955:
	.cv_inline_site_id 526 within 525 inlined_at 19 369 0
	.cv_inline_site_id 527 within 526 inlined_at 11 217 0
	.cv_inline_site_id 528 within 527 inlined_at 13 334 0
	.cv_inline_site_id 529 within 528 inlined_at 13 245 0
	.cv_inline_site_id 530 within 529 inlined_at 13 185 0
	.cv_inline_site_id 531 within 530 inlined_at 13 100 0
	.cv_loc	531 8 1543 0
	movzbl	__rust_no_alloc_shim_is_unstable(%rip), %eax
.Ltmp956:
	.cv_loc	530 13 102 0
	movl	$48, %ecx
	movl	$8, %edx
	callq	__rust_alloc
.Ltmp957:
	.cv_loc	527 13 334 0
	testq	%rax, %rax
	je	.LBB42_80
.Ltmp958:
	.cv_loc	526 11 217 0
	movups	48(%rbp), %xmm0
	movups	64(%rbp), %xmm1
	movups	80(%rbp), %xmm2
	movups	%xmm2, 32(%rax)
	movups	%xmm1, 16(%rax)
	movups	%xmm0, (%rax)
.Ltmp959:
	.cv_inline_site_id 532 within 508 inlined_at 18 485 0
	.cv_inline_site_id 533 within 532 inlined_at 19 1512 0
	.cv_inline_site_id 534 within 533 inlined_at 3 2510 0
	.cv_loc	534 3 3186 0
	lock		incq	(%rax)
.Ltmp960:
	.cv_loc	532 19 1529 0
	jle	.LBB42_9
.Ltmp961:
	.cv_loc	508 18 487 0
	movq	%rax, 120(%rbp)
.Ltmp962:
	movb	$1, 153(%rbp)
.Ltmp809:
.Ltmp963:
	xorl	%ecx, %ecx
	callq	_ZN3std2io5stdio18set_output_capture17hb599e222d9372a03E
.Ltmp810:
.Ltmp964:
	.cv_inline_site_id 535 within 508 inlined_at 18 488 0
	.cv_loc	535 34 1966 0
	testq	%rax, %rax
	je	.LBB42_103
.Ltmp965:
	.cv_inline_site_id 536 within 535 inlined_at 34 1967 0
	.cv_inline_site_id 537 within 536 inlined_at 19 1512 0
	.cv_inline_site_id 538 within 537 inlined_at 3 2510 0
	.cv_loc	538 3 3186 0
	lock		incq	(%rax)
.Ltmp966:
	.cv_loc	536 19 1529 0
	jle	.LBB42_9
.Ltmp967:
.LBB42_103:
	.cv_loc	508 18 488 0
	movb	$0, 152(%rbp)
	movb	$1, 151(%rbp)
.Ltmp811:
	movq	%rax, 32(%rbp)
.Ltmp968:
	movq	%rax, %rcx
	callq	_ZN3std2io5stdio18set_output_capture17hb599e222d9372a03E
.Ltmp812:
.Ltmp969:
	.cv_inline_site_id 539 within 508 inlined_at 18 488 0
	.cv_loc	539 8 497 0
	testq	%rax, %rax
	je	.LBB42_107
.Ltmp970:
	.cv_inline_site_id 540 within 539 inlined_at 8 497 0
	.cv_inline_site_id 541 within 540 inlined_at 8 497 0
	.cv_inline_site_id 542 within 541 inlined_at 19 1862 0
	.cv_inline_site_id 543 within 542 inlined_at 3 2540 0
	.cv_loc	543 3 3205 0
	lock		decq	(%rax)
.Ltmp971:
	.cv_loc	541 19 1862 0
	jne	.LBB42_107
.Ltmp972:
	.cv_inline_site_id 544 within 541 inlined_at 19 66 0
	.cv_loc	544 3 3496 0
	#MEMBARRIER
	.cv_loc	541 19 1897 0
	movq	%rax, %rcx
	callq	_ZN5alloc4sync12Arc$LT$T$GT$9drop_slow17h35c08c6223537f27E
.Ltmp973:
.LBB42_107:
	.cv_loc	508 18 515 0
	movq	136(%rbp), %rax
.Ltmp974:
	movq	%rax, 96(%rbp)
	movq	32(%rbp), %rax
	movq	%rax, 112(%rbp)
	movq	120(%rbp), %rax
	movq	%rax, 104(%rbp)
.Ltmp975:
	.cv_loc	508 18 544 0
	movq	16(%rax), %rcx
	testq	%rcx, %rcx
	je	.LBB42_109
.Ltmp976:
	.cv_inline_site_id 545 within 508 inlined_at 18 545 0
	.cv_loc	545 19 1543 0
	addq	$16, %rcx
	movb	$1, 160(%rbp)
.Ltmp977:
	.cv_loc	508 18 545 0
.Ltmp813:
	callq	_ZN3std6thread6scoped9ScopeData29increment_num_running_threads17heba71d12afbaf010E
.Ltmp978:
.Ltmp814:
.LBB42_109:
	.cv_loc	508 18 566 0
	movq	112(%rbp), %rax
	movq	%rax, 64(%rbp)
	movq	96(%rbp), %rax
	movq	%rax, 48(%rbp)
	movq	104(%rbp), %rax
	movq	%rax, 56(%rbp)
.Ltmp979:
	.cv_inline_site_id 546 within 508 inlined_at 18 566 0
	.cv_inline_site_id 547 within 546 inlined_at 11 217 0
	.cv_inline_site_id 548 within 547 inlined_at 13 334 0
	.cv_inline_site_id 549 within 548 inlined_at 13 245 0
	.cv_inline_site_id 550 within 549 inlined_at 13 185 0
	.cv_inline_site_id 551 within 550 inlined_at 13 100 0
	.cv_loc	551 8 1543 0
	movzbl	__rust_no_alloc_shim_is_unstable(%rip), %eax
.Ltmp980:
	.cv_loc	550 13 102 0
	movl	$24, %ecx
	movl	$8, %edx
	callq	__rust_alloc
.Ltmp981:
	.cv_loc	547 13 334 0
	testq	%rax, %rax
	je	.LBB42_110
.Ltmp982:
	.cv_loc	546 11 217 0
	movq	112(%rbp), %rcx
	movq	%rcx, 16(%rax)
	movdqu	96(%rbp), %xmm0
	movdqu	%xmm0, (%rax)
	movb	$0, 160(%rbp)
.Ltmp983:
	.cv_loc	508 18 563 0
.Ltmp815:
	movq	%r13, %rcx
	movq	%rax, %rdx
	leaq	__unnamed_12(%rip), %r8
	callq	_ZN3std3sys7windows6thread6Thread3new17he800403d384e6915E
.Ltmp816:
.Ltmp984:
	movq	%rdx, %rdi
.Ltmp985:
	.cv_inline_site_id 552 within 508 inlined_at 18 563 0
	.cv_loc	552 33 1948 0
	testq	%rax, %rax
	jne	.LBB42_114
.Ltmp986:
	.cv_inline_site_id 553 within 505 inlined_at 18 686 0
	.cv_loc	553 33 1032 0
	movq	136(%rbp), %rax
.Ltmp987:
	movq	%rax, 48(%rbp)
	movq	120(%rbp), %rax
	movq	%rax, 56(%rbp)
	movq	%rdi, 64(%rbp)
.Ltmp988:
	.cv_loc	449 1 51 0
	movq	-56(%rbp), %rax
	movq	%rax, 120(%rbp)
.Ltmp989:
	movq	-48(%rbp), %rax
	movq	%rax, 136(%rbp)
.Ltmp990:
	movq	-40(%rbp), %rcx
.Ltmp991:
	.cv_inline_site_id 554 within 449 inlined_at 1 51 0
	.cv_inline_site_id 555 within 554 inlined_at 18 1571 0
	.cv_loc	555 18 1438 0
.Ltmp821:
	callq	_ZN3std3sys7windows6thread6Thread4join17h3c4ec9cb938314e9E
.Ltmp992:
.Ltmp822:
	.cv_inline_site_id 556 within 555 inlined_at 18 1439 0
	.cv_inline_site_id 557 within 556 inlined_at 19 1721 0
	.cv_inline_site_id 558 within 557 inlined_at 19 1813 0
	.cv_inline_site_id 559 within 558 inlined_at 3 3114 0
	.cv_loc	559 3 3228 0
	movl	$1, %eax
	movq	136(%rbp), %rcx
	lock		cmpxchgq	%r14, 8(%rcx)
.Ltmp993:
	.cv_loc	557 19 1813 0
	jne	.LBB42_142
.Ltmp994:
	.cv_inline_site_id 560 within 557 inlined_at 19 1817 0
	.cv_inline_site_id 561 within 560 inlined_at 3 3114 0
	.cv_loc	561 3 3154 0
	movq	%rcx, %r9
.Ltmp995:
	movq	(%rcx), %rax
.Ltmp996:
	.cv_inline_site_id 562 within 557 inlined_at 19 1822 0
	.cv_inline_site_id 563 within 562 inlined_at 3 3114 0
	.cv_loc	563 3 3139 0
	movq	$1, 8(%rcx)
.Ltmp997:
	.cv_loc	557 19 1817 0
	cmpq	$1, %rax
.Ltmp998:
	.cv_loc	556 19 1721 0
	jne	.LBB42_142
.Ltmp999:
	.cv_inline_site_id 564 within 556 inlined_at 34 1697 0
	.cv_inline_site_id 565 within 564 inlined_at 10 916 0
	.cv_loc	565 8 1179 0
	movq	32(%r9), %rdi
.Ltmp1000:
	movq	40(%r9), %r13
.Ltmp1001:
	.cv_loc	556 34 933 0
	cmpq	$0, 24(%r9)
.Ltmp1002:
	.cv_inline_site_id 566 within 564 inlined_at 10 917 0
	.cv_loc	566 8 1377 0
	movq	$0, 24(%r9)
.Ltmp1003:
	.cv_loc	556 34 933 0
	je	.LBB42_143
.Ltmp1004:
	.cv_inline_site_id 567 within 555 inlined_at 18 1440 0
	.cv_inline_site_id 568 within 567 inlined_at 8 497 0
	.cv_inline_site_id 569 within 568 inlined_at 8 497 0
	.cv_inline_site_id 570 within 569 inlined_at 8 497 0
	.cv_inline_site_id 571 within 570 inlined_at 19 1862 0
	.cv_inline_site_id 572 within 571 inlined_at 3 2540 0
	.cv_loc	572 3 3205 0
	movq	%r9, %r15
.Ltmp1005:
	movq	120(%rbp), %rcx
.Ltmp1006:
	lock		decq	(%rcx)
.Ltmp1007:
	.cv_loc	570 19 1862 0
	jne	.LBB42_147
.Ltmp1008:
	.cv_inline_site_id 573 within 570 inlined_at 19 66 0
	.cv_loc	573 3 3496 0
	#MEMBARRIER
	.cv_loc	570 19 1897 0
	callq	_ZN5alloc4sync12Arc$LT$T$GT$9drop_slow17hf6180cbef32ec201E
.Ltmp1009:
.LBB42_147:
	.cv_inline_site_id 574 within 555 inlined_at 18 1440 0
	.cv_inline_site_id 575 within 574 inlined_at 8 497 0
	.cv_inline_site_id 576 within 575 inlined_at 19 1862 0
	.cv_inline_site_id 577 within 576 inlined_at 3 2540 0
	.cv_loc	577 3 3205 0
	lock		decq	(%r15)
.Ltmp1010:
	.cv_loc	575 19 1862 0
	jne	.LBB42_149
.Ltmp1011:
	.cv_inline_site_id 578 within 575 inlined_at 19 66 0
	.cv_loc	578 3 3496 0
	#MEMBARRIER
	movb	$1, 167(%rbp)
	.cv_loc	575 19 1897 0
.Ltmp825:
	movq	%r15, %rcx
	callq	_ZN5alloc4sync12Arc$LT$T$GT$9drop_slow17h12dcb8e2605acdf7E
.Ltmp1012:
.Ltmp826:
.LBB42_149:
	.cv_inline_site_id 579 within 449 inlined_at 1 51 0
	.cv_loc	579 33 1074 0
	testq	%rdi, %rdi
	jne	.LBB42_150
.Ltmp1013:
	.cv_loc	449 1 52 0
	movq	48(%rbp), %rax
	movq	%rax, 120(%rbp)
.Ltmp1014:
	movq	56(%rbp), %rax
	movq	%rax, 136(%rbp)
.Ltmp1015:
	movq	64(%rbp), %rcx
.Ltmp1016:
	.cv_inline_site_id 580 within 449 inlined_at 1 52 0
	.cv_inline_site_id 581 within 580 inlined_at 18 1571 0
	.cv_loc	581 18 1438 0
.Ltmp829:
	callq	_ZN3std3sys7windows6thread6Thread4join17h3c4ec9cb938314e9E
.Ltmp1017:
.Ltmp830:
	.cv_inline_site_id 582 within 581 inlined_at 18 1439 0
	.cv_inline_site_id 583 within 582 inlined_at 19 1721 0
	.cv_inline_site_id 584 within 583 inlined_at 19 1813 0
	.cv_inline_site_id 585 within 584 inlined_at 3 3114 0
	.cv_loc	585 3 3228 0
	movl	$1, %eax
	movq	136(%rbp), %r15
	lock		cmpxchgq	%r14, 8(%r15)
.Ltmp1018:
	.cv_loc	583 19 1813 0
	jne	.LBB42_155
.Ltmp1019:
	.cv_inline_site_id 586 within 583 inlined_at 19 1817 0
	.cv_inline_site_id 587 within 586 inlined_at 3 3114 0
	.cv_loc	587 3 3154 0
	movq	(%r15), %rax
.Ltmp1020:
	.cv_inline_site_id 588 within 583 inlined_at 19 1822 0
	.cv_inline_site_id 589 within 588 inlined_at 3 3114 0
	.cv_loc	589 3 3139 0
	movq	$1, 8(%r15)
.Ltmp1021:
	.cv_loc	583 19 1817 0
	cmpq	$1, %rax
.Ltmp1022:
	.cv_loc	582 19 1721 0
	jne	.LBB42_155
.Ltmp1023:
	.cv_inline_site_id 590 within 582 inlined_at 34 1697 0
	.cv_inline_site_id 591 within 590 inlined_at 10 916 0
	.cv_loc	591 8 1179 0
	movq	32(%r15), %rdi
.Ltmp1024:
	movq	40(%r15), %r13
.Ltmp1025:
	.cv_loc	582 34 933 0
	cmpq	$0, 24(%r15)
.Ltmp1026:
	.cv_inline_site_id 592 within 590 inlined_at 10 917 0
	.cv_loc	592 8 1377 0
	movq	$0, 24(%r15)
.Ltmp1027:
	.cv_loc	582 34 933 0
	je	.LBB42_156
.Ltmp1028:
	.cv_inline_site_id 593 within 581 inlined_at 18 1440 0
	.cv_inline_site_id 594 within 593 inlined_at 8 497 0
	.cv_inline_site_id 595 within 594 inlined_at 8 497 0
	.cv_inline_site_id 596 within 595 inlined_at 8 497 0
	.cv_inline_site_id 597 within 596 inlined_at 19 1862 0
	.cv_inline_site_id 598 within 597 inlined_at 3 2540 0
	.cv_loc	598 3 3205 0
	movq	120(%rbp), %rcx
.Ltmp1029:
	lock		decq	(%rcx)
.Ltmp1030:
	.cv_loc	596 19 1862 0
	jne	.LBB42_160
.Ltmp1031:
	.cv_inline_site_id 599 within 596 inlined_at 19 66 0
	.cv_loc	599 3 3496 0
	#MEMBARRIER
	.cv_loc	596 19 1897 0
	callq	_ZN5alloc4sync12Arc$LT$T$GT$9drop_slow17hf6180cbef32ec201E
.Ltmp1032:
.LBB42_160:
	.cv_inline_site_id 600 within 581 inlined_at 18 1440 0
	.cv_inline_site_id 601 within 600 inlined_at 8 497 0
	.cv_inline_site_id 602 within 601 inlined_at 19 1862 0
	.cv_inline_site_id 603 within 602 inlined_at 3 2540 0
	.cv_loc	603 3 3205 0
	lock		decq	(%r15)
.Ltmp1033:
	.cv_loc	601 19 1862 0
	jne	.LBB42_162
.Ltmp1034:
	.cv_inline_site_id 604 within 601 inlined_at 19 66 0
	.cv_loc	604 3 3496 0
	#MEMBARRIER
	movb	$0, 167(%rbp)
	.cv_loc	601 19 1897 0
.Ltmp833:
	movq	%r15, %rcx
	callq	_ZN5alloc4sync12Arc$LT$T$GT$9drop_slow17h12dcb8e2605acdf7E
.Ltmp834:
	jmp	.LBB42_162
.Ltmp1035:
.LBB42_15:
	.cv_loc	463 28 269 0
	movl	$1, %eax
.Ltmp1036:
	testq	%rax, %rax
	je	.LBB42_20
	jmp	.LBB42_25
.Ltmp1037:
.LBB42_86:
	.cv_loc	513 28 269 0
	movl	$1, %eax
.Ltmp1038:
	testq	%rax, %rax
	je	.LBB42_91
.Ltmp1039:
.LBB42_96:
	.cv_loc	513 28 270 0
	movq	104(%rbp), %rax
.Ltmp1040:
	movq	136(%rbp), %rcx
.Ltmp1041:
	.cv_inline_site_id 605 within 511 inlined_at 18 476 0
	.cv_loc	605 33 1033 0
	movq	%rcx, 48(%rbp)
	movq	%rax, 56(%rbp)
	movq	%rdi, 64(%rbp)
	movq	%rdx, 72(%rbp)
	.cv_loc	605 33 1033 0
.Ltmp803:
.Ltmp1042:
	leaq	__unnamed_13(%rip), %rax
.Ltmp1043:
	movq	%rax, 32(%rsp)
	leaq	__unnamed_14(%rip), %rcx
.Ltmp1044:
	leaq	__unnamed_15(%rip), %r9
	leaq	48(%rbp), %r8
	movl	$47, %edx
.Ltmp1045:
	callq	_ZN4core6result13unwrap_failed17h60af46ab7bf10748E
.Ltmp1046:
.Ltmp804:
	jmp	.LBB42_26
.Ltmp1047:
.LBB42_9:
	ud2
	ud2
.LBB42_142:
.Ltmp1048:
	.cv_loc	556 34 935 0
.Ltmp823:
	leaq	__unnamed_16(%rip), %rcx
	leaq	__unnamed_17(%rip), %r8
	movl	$43, %edx
	callq	_ZN4core9panicking5panic17hd8fd9a7d9b3c9589E
.Ltmp824:
	jmp	.LBB42_26
.Ltmp1049:
.LBB42_155:
	.cv_loc	582 34 935 0
.Ltmp831:
	leaq	__unnamed_16(%rip), %rcx
	leaq	__unnamed_17(%rip), %r8
	movl	$43, %edx
	callq	_ZN4core9panicking5panic17hd8fd9a7d9b3c9589E
.Ltmp832:
	jmp	.LBB42_26
.Ltmp1050:
.LBB42_29:
	.cv_loc	477 13 336 0
.Ltmp847:
	movl	$8, %ecx
	movl	$48, %edx
	callq	_ZN5alloc5alloc18handle_alloc_error17h927b635898ac75a1E
.Ltmp848:
	jmp	.LBB42_26
.Ltmp1051:
.LBB42_42:
	.cv_loc	497 13 336 0
.Ltmp845:
	movl	$8, %ecx
	movl	$24, %edx
	callq	_ZN5alloc5alloc18handle_alloc_error17h927b635898ac75a1E
.Ltmp846:
	jmp	.LBB42_26
.Ltmp1052:
.LBB42_46:
	.cv_inline_site_id 606 within 458 inlined_at 18 573 0
	.cv_inline_site_id 607 within 606 inlined_at 8 497 0
	.cv_inline_site_id 608 within 607 inlined_at 19 1862 0
	.cv_inline_site_id 609 within 608 inlined_at 3 2540 0
	.cv_loc	609 3 3205 0
	movq	120(%rbp), %rcx
.Ltmp1053:
	lock		decq	(%rcx)
.Ltmp1054:
	.cv_loc	607 19 1862 0
	jne	.LBB42_48
.Ltmp1055:
	.cv_inline_site_id 610 within 607 inlined_at 19 66 0
	.cv_loc	610 3 3496 0
	#MEMBARRIER
	.cv_loc	607 19 1897 0
.Ltmp791:
	callq	_ZN5alloc4sync12Arc$LT$T$GT$9drop_slow17h12dcb8e2605acdf7E
.Ltmp1056:
.Ltmp792:
.LBB42_48:
	.cv_inline_site_id 611 within 458 inlined_at 18 573 0
	.cv_inline_site_id 612 within 611 inlined_at 8 497 0
	.cv_inline_site_id 613 within 612 inlined_at 8 497 0
	.cv_inline_site_id 614 within 613 inlined_at 8 497 0
	.cv_inline_site_id 615 within 614 inlined_at 19 1862 0
	.cv_inline_site_id 616 within 615 inlined_at 3 2540 0
	.cv_loc	616 3 3205 0
	movq	136(%rbp), %rcx
.Ltmp1057:
	lock		decq	(%rcx)
.Ltmp1058:
	.cv_loc	614 19 1862 0
	jne	.LBB42_50
.Ltmp1059:
	.cv_inline_site_id 617 within 614 inlined_at 19 66 0
	.cv_loc	617 3 3496 0
	#MEMBARRIER
	.cv_loc	614 19 1897 0
	callq	_ZN5alloc4sync12Arc$LT$T$GT$9drop_slow17hf6180cbef32ec201E
.Ltmp1060:
.LBB42_50:
	.cv_loc	503 33 1033 0
	movq	%rdi, 48(%rbp)
	.cv_loc	503 33 1033 0
.Ltmp793:
.Ltmp1061:
	leaq	__unnamed_18(%rip), %rax
	movq	%rax, 32(%rsp)
	leaq	__unnamed_19(%rip), %rcx
.Ltmp1062:
	leaq	__unnamed_20(%rip), %r9
	leaq	48(%rbp), %r8
	movl	$22, %edx
	callq	_ZN4core6result13unwrap_failed17h60af46ab7bf10748E
.Ltmp1063:
.Ltmp794:
	jmp	.LBB42_26
.Ltmp1064:
.LBB42_80:
	.cv_loc	527 13 336 0
.Ltmp843:
	movl	$8, %ecx
	movl	$48, %edx
	callq	_ZN5alloc5alloc18handle_alloc_error17h927b635898ac75a1E
.Ltmp844:
	jmp	.LBB42_26
.Ltmp1065:
.LBB42_110:
	.cv_loc	547 13 336 0
.Ltmp841:
	movl	$8, %ecx
	movl	$24, %edx
	callq	_ZN5alloc5alloc18handle_alloc_error17h927b635898ac75a1E
.Ltmp842:
	jmp	.LBB42_26
.Ltmp1066:
.LBB42_114:
	.cv_inline_site_id 618 within 508 inlined_at 18 573 0
	.cv_inline_site_id 619 within 618 inlined_at 8 497 0
	.cv_inline_site_id 620 within 619 inlined_at 19 1862 0
	.cv_inline_site_id 621 within 620 inlined_at 3 2540 0
	.cv_loc	621 3 3205 0
	movq	120(%rbp), %rcx
.Ltmp1067:
	lock		decq	(%rcx)
.Ltmp1068:
	.cv_loc	619 19 1862 0
	jne	.LBB42_116
.Ltmp1069:
	.cv_inline_site_id 622 within 619 inlined_at 19 66 0
	.cv_loc	622 3 3496 0
	#MEMBARRIER
	.cv_loc	619 19 1897 0
.Ltmp817:
	callq	_ZN5alloc4sync12Arc$LT$T$GT$9drop_slow17h12dcb8e2605acdf7E
.Ltmp1070:
.Ltmp818:
.LBB42_116:
	.cv_inline_site_id 623 within 508 inlined_at 18 573 0
	.cv_inline_site_id 624 within 623 inlined_at 8 497 0
	.cv_inline_site_id 625 within 624 inlined_at 8 497 0
	.cv_inline_site_id 626 within 625 inlined_at 8 497 0
	.cv_inline_site_id 627 within 626 inlined_at 19 1862 0
	.cv_inline_site_id 628 within 627 inlined_at 3 2540 0
	.cv_loc	628 3 3205 0
	movq	136(%rbp), %rcx
.Ltmp1071:
	lock		decq	(%rcx)
.Ltmp1072:
	.cv_loc	626 19 1862 0
	jne	.LBB42_118
.Ltmp1073:
	.cv_inline_site_id 629 within 626 inlined_at 19 66 0
	.cv_loc	629 3 3496 0
	#MEMBARRIER
	.cv_loc	626 19 1897 0
	callq	_ZN5alloc4sync12Arc$LT$T$GT$9drop_slow17hf6180cbef32ec201E
.Ltmp1074:
.LBB42_118:
	.cv_loc	553 33 1033 0
	movq	%rdi, 48(%rbp)
	.cv_loc	553 33 1033 0
.Ltmp819:
.Ltmp1075:
	leaq	__unnamed_18(%rip), %rax
	movq	%rax, 32(%rsp)
	leaq	__unnamed_19(%rip), %rcx
.Ltmp1076:
	leaq	__unnamed_20(%rip), %r9
	leaq	48(%rbp), %r8
	movl	$22, %edx
	callq	_ZN4core6result13unwrap_failed17h60af46ab7bf10748E
.Ltmp1077:
.Ltmp820:
	jmp	.LBB42_26
.Ltmp1078:
.LBB42_143:
	.cv_loc	556 34 935 0
.Ltmp839:
	leaq	__unnamed_16(%rip), %rcx
	leaq	__unnamed_21(%rip), %r8
	movl	$43, %edx
	callq	_ZN4core9panicking5panic17hd8fd9a7d9b3c9589E
.Ltmp840:
	jmp	.LBB42_26
.Ltmp1079:
.LBB42_150:
	.cv_loc	579 33 1076 0
	movq	%rdi, -8(%rbp)
	movq	%r13, (%rbp)
	.cv_loc	579 33 1076 0
.Ltmp827:
.Ltmp1080:
	leaq	__unnamed_22(%rip), %rax
	movq	%rax, 32(%rsp)
	leaq	__unnamed_23(%rip), %rcx
	leaq	__unnamed_24(%rip), %r9
	leaq	-8(%rbp), %r8
	movl	$43, %edx
	callq	_ZN4core6result13unwrap_failed17h60af46ab7bf10748E
.Ltmp828:
	jmp	.LBB42_26
.Ltmp1081:
.LBB42_156:
	.cv_loc	582 34 935 0
.Ltmp837:
	leaq	__unnamed_16(%rip), %rcx
	leaq	__unnamed_21(%rip), %r8
	movl	$43, %edx
	callq	_ZN4core9panicking5panic17hd8fd9a7d9b3c9589E
.Ltmp838:
	jmp	.LBB42_26
.Ltmp1082:
.LBB42_163:
	.cv_loc	450 33 1076 0
	movq	%rdi, -8(%rbp)
	movq	%r13, (%rbp)
	.cv_loc	450 33 1076 0
.Ltmp835:
.Ltmp1083:
	leaq	__unnamed_25(%rip), %rax
	movq	%rax, 32(%rsp)
	leaq	__unnamed_23(%rip), %rcx
	leaq	__unnamed_24(%rip), %r9
	leaq	-8(%rbp), %r8
	movl	$43, %edx
	callq	_ZN4core6result13unwrap_failed17h60af46ab7bf10748E
.Ltmp836:
	jmp	.LBB42_26
.Ltmp1084:
.LBB42_25:
	.cv_loc	463 28 270 0
	movq	104(%rbp), %rax
.Ltmp1085:
	movq	136(%rbp), %rcx
.Ltmp1086:
	.cv_inline_site_id 630 within 461 inlined_at 18 476 0
	.cv_loc	630 33 1033 0
	movq	%rcx, 48(%rbp)
	movq	%rax, 56(%rbp)
	movq	%rdi, 64(%rbp)
	movq	%rdx, 72(%rbp)
	.cv_loc	630 33 1033 0
.Ltmp777:
.Ltmp1087:
	leaq	__unnamed_13(%rip), %rax
.Ltmp1088:
	movq	%rax, 32(%rsp)
	leaq	__unnamed_14(%rip), %rcx
.Ltmp1089:
	leaq	__unnamed_15(%rip), %r9
	leaq	48(%rbp), %r8
	movl	$47, %edx
.Ltmp1090:
	callq	_ZN4core6result13unwrap_failed17h60af46ab7bf10748E
.Ltmp1091:
.Ltmp778:
.LBB42_26:
	ud2
	.seh_handlerdata
	.long	($cppxdata$_ZN10concurrent4main17h5995471d045fea41E)@IMGREL
	.section	.text,"xr",one_only,_ZN10concurrent4main17h5995471d045fea41E
	.seh_endproc
	.def	"?dtor$21@?0?_ZN10concurrent4main17h5995471d045fea41E@4HA";
	.scl	3;
	.type	32;
	.endef
	.p2align	4, 0x90
"?dtor$21@?0?_ZN10concurrent4main17h5995471d045fea41E@4HA":
.seh_proc "?dtor$21@?0?_ZN10concurrent4main17h5995471d045fea41E@4HA"
.LBB42_21:
.Ltmp1092:
	movq	%rdx, 16(%rsp)
	pushq	%rbp
	.seh_pushreg %rbp
.Ltmp1093:
	pushq	%r15
	.seh_pushreg %r15
	pushq	%r14
	.seh_pushreg %r14
	pushq	%r13
	.seh_pushreg %r13
	pushq	%r12
	.seh_pushreg %r12
	pushq	%rsi
	.seh_pushreg %rsi
	pushq	%rdi
	.seh_pushreg %rdi
	pushq	%rbx
	.seh_pushreg %rbx
	subq	$56, %rsp
	.seh_stackalloc 56
	leaq	128(%rdx), %rbp
.Ltmp1094:
	movaps	%xmm6, 32(%rsp)
	.seh_savexmm %xmm6, 32
	.seh_endprologue
	.cv_loc	463 28 273 0
	cmpb	$0, 135(%rbp)
	je	.LBB42_22
.Ltmp1095:
	movq	104(%rbp), %rdx
	movb	$0, 166(%rbp)
	movb	$1, 165(%rbp)
	movq	136(%rbp), %rcx
	callq	_ZN4core3ptr46drop_in_place$LT$alloc..vec..Vec$LT$u8$GT$$GT$17h3b5c9988cdef32faE
.Ltmp1096:
.LBB42_22:
	movb	$0, 166(%rbp)
	movb	$1, 165(%rbp)
	movaps	32(%rsp), %xmm6
	addq	$56, %rsp
	popq	%rbx
	popq	%rdi
	popq	%rsi
	popq	%r12
	popq	%r13
.Ltmp1097:
	popq	%r14
	popq	%r15
	popq	%rbp
	retq
.Ltmp1098:
	.seh_handlerdata
	.section	.text,"xr",one_only,_ZN10concurrent4main17h5995471d045fea41E
	.seh_endproc
	.def	"?dtor$24@?0?_ZN10concurrent4main17h5995471d045fea41E@4HA";
	.scl	3;
	.type	32;
	.endef
	.p2align	4, 0x90
"?dtor$24@?0?_ZN10concurrent4main17h5995471d045fea41E@4HA":
.seh_proc "?dtor$24@?0?_ZN10concurrent4main17h5995471d045fea41E@4HA"
.LBB42_24:
	movq	%rdx, 16(%rsp)
	pushq	%rbp
	.seh_pushreg %rbp
	pushq	%r15
	.seh_pushreg %r15
	pushq	%r14
	.seh_pushreg %r14
	pushq	%r13
	.seh_pushreg %r13
	pushq	%r12
	.seh_pushreg %r12
	pushq	%rsi
	.seh_pushreg %rsi
	pushq	%rdi
	.seh_pushreg %rdi
	pushq	%rbx
	.seh_pushreg %rbx
	subq	$56, %rsp
	.seh_stackalloc 56
	leaq	128(%rdx), %rbp
.Ltmp1099:
	movaps	%xmm6, 32(%rsp)
	.seh_savexmm %xmm6, 32
	.seh_endprologue
	leaq	48(%rbp), %rcx
.Ltmp1100:
	.cv_loc	630 33 1033 0
	callq	_ZN4core3ptr48drop_in_place$LT$alloc..ffi..c_str..NulError$GT$17hef9c01c00a16a3dbE
	movb	$0, 166(%rbp)
	movb	$1, 165(%rbp)
	movaps	32(%rsp), %xmm6
	addq	$56, %rsp
	popq	%rbx
	popq	%rdi
.Ltmp1101:
	popq	%rsi
	popq	%r12
	popq	%r13
.Ltmp1102:
	popq	%r14
	popq	%r15
	popq	%rbp
	retq
.Ltmp1103:
	.seh_handlerdata
	.section	.text,"xr",one_only,_ZN10concurrent4main17h5995471d045fea41E
	.seh_endproc
	.def	"?dtor$27@?0?_ZN10concurrent4main17h5995471d045fea41E@4HA";
	.scl	3;
	.type	32;
	.endef
	.p2align	4, 0x90
"?dtor$27@?0?_ZN10concurrent4main17h5995471d045fea41E@4HA":
.seh_proc "?dtor$27@?0?_ZN10concurrent4main17h5995471d045fea41E@4HA"
.LBB42_27:
	movq	%rdx, 16(%rsp)
	pushq	%rbp
	.seh_pushreg %rbp
	pushq	%r15
	.seh_pushreg %r15
	pushq	%r14
	.seh_pushreg %r14
	pushq	%r13
	.seh_pushreg %r13
	pushq	%r12
	.seh_pushreg %r12
	pushq	%rsi
	.seh_pushreg %rsi
	pushq	%rdi
	.seh_pushreg %rdi
	pushq	%rbx
	.seh_pushreg %rbx
	subq	$56, %rsp
	.seh_stackalloc 56
	leaq	128(%rdx), %rbp
.Ltmp1104:
	movaps	%xmm6, 32(%rsp)
	.seh_savexmm %xmm6, 32
	.seh_endprologue
	movq	136(%rbp), %rcx
	.cv_loc	458 18 573 0
	callq	_ZN4core3ptr40drop_in_place$LT$std..thread..Thread$GT$17hf8a0d34335fb1b2fE
	movb	$0, 166(%rbp)
	movb	$0, 165(%rbp)
	movaps	32(%rsp), %xmm6
	addq	$56, %rsp
	popq	%rbx
	popq	%rdi
	popq	%rsi
	popq	%r12
	popq	%r13
	popq	%r14
	popq	%r15
	popq	%rbp
	retq
.Ltmp1105:
	.seh_handlerdata
	.section	.text,"xr",one_only,_ZN10concurrent4main17h5995471d045fea41E
	.seh_endproc
	.def	"?dtor$30@?0?_ZN10concurrent4main17h5995471d045fea41E@4HA";
	.scl	3;
	.type	32;
	.endef
	.p2align	4, 0x90
"?dtor$30@?0?_ZN10concurrent4main17h5995471d045fea41E@4HA":
.seh_proc "?dtor$30@?0?_ZN10concurrent4main17h5995471d045fea41E@4HA"
.LBB42_30:
	movq	%rdx, 16(%rsp)
	pushq	%rbp
	.seh_pushreg %rbp
	pushq	%r15
	.seh_pushreg %r15
	pushq	%r14
	.seh_pushreg %r14
	pushq	%r13
	.seh_pushreg %r13
	pushq	%r12
	.seh_pushreg %r12
	pushq	%rsi
	.seh_pushreg %rsi
	pushq	%rdi
	.seh_pushreg %rdi
	pushq	%rbx
	.seh_pushreg %rbx
	subq	$56, %rsp
	.seh_stackalloc 56
	leaq	128(%rdx), %rbp
.Ltmp1106:
	movaps	%xmm6, 32(%rsp)
	.seh_savexmm %xmm6, 32
	.seh_endprologue
	movb	$1, 159(%rbp)
	leaq	48(%rbp), %rcx
.Ltmp1107:
	.cv_loc	476 11 218 0
	callq	_ZN4core3ptr85drop_in_place$LT$alloc..sync..ArcInner$LT$std..thread..Packet$LT$$LP$$RP$$GT$$GT$$GT$17hab44cc3f56671070E
	movb	$1, 159(%rbp)
	movaps	32(%rsp), %xmm6
	addq	$56, %rsp
	popq	%rbx
	popq	%rdi
	popq	%rsi
	popq	%r12
	popq	%r13
.Ltmp1108:
	popq	%r14
	popq	%r15
	popq	%rbp
	retq
.Ltmp1109:
	.seh_handlerdata
	.section	.text,"xr",one_only,_ZN10concurrent4main17h5995471d045fea41E
	.seh_endproc
	.def	"?dtor$43@?0?_ZN10concurrent4main17h5995471d045fea41E@4HA";
	.scl	3;
	.type	32;
	.endef
	.p2align	4, 0x90
"?dtor$43@?0?_ZN10concurrent4main17h5995471d045fea41E@4HA":
.seh_proc "?dtor$43@?0?_ZN10concurrent4main17h5995471d045fea41E@4HA"
.LBB42_43:
	movq	%rdx, 16(%rsp)
	pushq	%rbp
	.seh_pushreg %rbp
	pushq	%r15
	.seh_pushreg %r15
	pushq	%r14
	.seh_pushreg %r14
	pushq	%r13
	.seh_pushreg %r13
	pushq	%r12
	.seh_pushreg %r12
	pushq	%rsi
	.seh_pushreg %rsi
	pushq	%rdi
	.seh_pushreg %rdi
	pushq	%rbx
	.seh_pushreg %rbx
	subq	$56, %rsp
	.seh_stackalloc 56
	leaq	128(%rdx), %rbp
.Ltmp1110:
	movaps	%xmm6, 32(%rsp)
	.seh_savexmm %xmm6, 32
	.seh_endprologue
	movb	$0, 161(%rbp)
	leaq	48(%rbp), %rcx
.Ltmp1111:
	.cv_loc	496 11 218 0
	callq	_ZN4core3ptr156drop_in_place$LT$std..thread..Builder..spawn_unchecked_$LT$concurrent..consumer..$u7b$$u7b$closure$u7d$$u7d$$C$$LP$$RP$$GT$..$u7b$$u7b$closure$u7d$$u7d$$GT$17h4c86d115223721efE
	movb	$0, 161(%rbp)
	movaps	32(%rsp), %xmm6
	addq	$56, %rsp
	popq	%rbx
	popq	%rdi
	popq	%rsi
	popq	%r12
	popq	%r13
.Ltmp1112:
	popq	%r14
	popq	%r15
	popq	%rbp
	retq
.Ltmp1113:
	.seh_handlerdata
	.section	.text,"xr",one_only,_ZN10concurrent4main17h5995471d045fea41E
	.seh_endproc
	.def	"?dtor$51@?0?_ZN10concurrent4main17h5995471d045fea41E@4HA";
	.scl	3;
	.type	32;
	.endef
	.p2align	4, 0x90
"?dtor$51@?0?_ZN10concurrent4main17h5995471d045fea41E@4HA":
.seh_proc "?dtor$51@?0?_ZN10concurrent4main17h5995471d045fea41E@4HA"
.LBB42_51:
	movq	%rdx, 16(%rsp)
	pushq	%rbp
	.seh_pushreg %rbp
	pushq	%r15
	.seh_pushreg %r15
	pushq	%r14
	.seh_pushreg %r14
	pushq	%r13
	.seh_pushreg %r13
	pushq	%r12
	.seh_pushreg %r12
	pushq	%rsi
	.seh_pushreg %rsi
	pushq	%rdi
	.seh_pushreg %rdi
	pushq	%rbx
	.seh_pushreg %rbx
	subq	$56, %rsp
	.seh_stackalloc 56
	leaq	128(%rdx), %rbp
.Ltmp1114:
	movaps	%xmm6, 32(%rsp)
	.seh_savexmm %xmm6, 32
	.seh_endprologue
	.cv_loc	458 18 573 0
	cmpb	$0, 161(%rbp)
	je	.LBB42_52
.Ltmp1115:
	leaq	96(%rbp), %rcx
	callq	_ZN4core3ptr156drop_in_place$LT$std..thread..Builder..spawn_unchecked_$LT$concurrent..consumer..$u7b$$u7b$closure$u7d$$u7d$$C$$LP$$RP$$GT$..$u7b$$u7b$closure$u7d$$u7d$$GT$17h4c86d115223721efE
	movb	$1, 157(%rbp)
	movb	$0, 156(%rbp)
	movaps	32(%rsp), %xmm6
	addq	$56, %rsp
	popq	%rbx
	popq	%rdi
	popq	%rsi
	popq	%r12
	popq	%r13
	popq	%r14
	popq	%r15
	popq	%rbp
	retq
.Ltmp1116:
.LBB42_52:
	movb	$1, 157(%rbp)
	movb	$0, 156(%rbp)
	movaps	32(%rsp), %xmm6
	addq	$56, %rsp
	popq	%rbx
	popq	%rdi
	popq	%rsi
	popq	%r12
	popq	%r13
	popq	%r14
	popq	%r15
	popq	%rbp
	retq
.Ltmp1117:
	.seh_handlerdata
	.section	.text,"xr",one_only,_ZN10concurrent4main17h5995471d045fea41E
	.seh_endproc
	.def	"?dtor$55@?0?_ZN10concurrent4main17h5995471d045fea41E@4HA";
	.scl	3;
	.type	32;
	.endef
	.p2align	4, 0x90
"?dtor$55@?0?_ZN10concurrent4main17h5995471d045fea41E@4HA":
.seh_proc "?dtor$55@?0?_ZN10concurrent4main17h5995471d045fea41E@4HA"
.LBB42_55:
	movq	%rdx, 16(%rsp)
	pushq	%rbp
	.seh_pushreg %rbp
	pushq	%r15
	.seh_pushreg %r15
	pushq	%r14
	.seh_pushreg %r14
	pushq	%r13
	.seh_pushreg %r13
	pushq	%r12
	.seh_pushreg %r12
	pushq	%rsi
	.seh_pushreg %rsi
	pushq	%rdi
	.seh_pushreg %rdi
	pushq	%rbx
	.seh_pushreg %rbx
	subq	$56, %rsp
	.seh_stackalloc 56
	leaq	128(%rdx), %rbp
.Ltmp1118:
	movaps	%xmm6, 32(%rsp)
	.seh_savexmm %xmm6, 32
	.seh_endprologue
	movzbl	156(%rbp), %ebx
	.cv_loc	458 18 573 0
	cmpb	$0, 157(%rbp)
	je	.LBB42_56
.Ltmp1119:
	movb	%bl, 158(%rbp)
	movaps	32(%rsp), %xmm6
	addq	$56, %rsp
	popq	%rbx
	popq	%rdi
	popq	%rsi
	popq	%r12
	popq	%r13
	popq	%r14
	popq	%r15
	popq	%rbp
	retq
.Ltmp1120:
.LBB42_56:
	movq	32(%rbp), %rcx
	callq	_ZN4core3ptr129drop_in_place$LT$core..option..Option$LT$alloc..sync..Arc$LT$std..sync..mutex..Mutex$LT$alloc..vec..Vec$LT$u8$GT$$GT$$GT$$GT$$GT$17haf66c382f93ff638E
	movb	%bl, 158(%rbp)
	movaps	32(%rsp), %xmm6
	addq	$56, %rsp
	popq	%rbx
	popq	%rdi
	popq	%rsi
	popq	%r12
	popq	%r13
	popq	%r14
	popq	%r15
	popq	%rbp
	retq
.Ltmp1121:
	.seh_handlerdata
	.section	.text,"xr",one_only,_ZN10concurrent4main17h5995471d045fea41E
	.seh_endproc
	.def	"?dtor$57@?0?_ZN10concurrent4main17h5995471d045fea41E@4HA";
	.scl	3;
	.type	32;
	.endef
	.p2align	4, 0x90
"?dtor$57@?0?_ZN10concurrent4main17h5995471d045fea41E@4HA":
.seh_proc "?dtor$57@?0?_ZN10concurrent4main17h5995471d045fea41E@4HA"
.LBB42_57:
	movq	%rdx, 16(%rsp)
	pushq	%rbp
	.seh_pushreg %rbp
	pushq	%r15
	.seh_pushreg %r15
	pushq	%r14
	.seh_pushreg %r14
	pushq	%r13
	.seh_pushreg %r13
	pushq	%r12
	.seh_pushreg %r12
	pushq	%rsi
	.seh_pushreg %rsi
	pushq	%rdi
	.seh_pushreg %rdi
	pushq	%rbx
	.seh_pushreg %rbx
	subq	$56, %rsp
	.seh_stackalloc 56
	leaq	128(%rdx), %rbp
.Ltmp1122:
	movaps	%xmm6, 32(%rsp)
	.seh_savexmm %xmm6, 32
	.seh_endprologue
	movzbl	158(%rbp), %ebx
	.cv_loc	458 18 573 0
	testb	%bl, %bl
	movq	120(%rbp), %rsi
	je	.LBB42_58
.Ltmp1123:
	movq	%rsi, %rcx
	callq	_ZN4core3ptr80drop_in_place$LT$alloc..sync..Arc$LT$std..thread..Packet$LT$$LP$$RP$$GT$$GT$$GT$17ha058be337863582dE
.Ltmp1124:
.LBB42_58:
	.cv_loc	458 18 573 0
	movq	%rsi, %rcx
	callq	_ZN4core3ptr80drop_in_place$LT$alloc..sync..Arc$LT$std..thread..Packet$LT$$LP$$RP$$GT$$GT$$GT$17ha058be337863582dE
	movb	%bl, 159(%rbp)
	movaps	32(%rsp), %xmm6
	addq	$56, %rsp
	popq	%rbx
	popq	%rdi
	popq	%rsi
	popq	%r12
	popq	%r13
	popq	%r14
	popq	%r15
	popq	%rbp
	retq
.Ltmp1125:
	.seh_handlerdata
	.section	.text,"xr",one_only,_ZN10concurrent4main17h5995471d045fea41E
	.seh_endproc
	.def	"?dtor$61@?0?_ZN10concurrent4main17h5995471d045fea41E@4HA";
	.scl	3;
	.type	32;
	.endef
	.p2align	4, 0x90
"?dtor$61@?0?_ZN10concurrent4main17h5995471d045fea41E@4HA":
.seh_proc "?dtor$61@?0?_ZN10concurrent4main17h5995471d045fea41E@4HA"
.LBB42_61:
	movq	%rdx, 16(%rsp)
	pushq	%rbp
	.seh_pushreg %rbp
	pushq	%r15
	.seh_pushreg %r15
	pushq	%r14
	.seh_pushreg %r14
	pushq	%r13
	.seh_pushreg %r13
	pushq	%r12
	.seh_pushreg %r12
	pushq	%rsi
	.seh_pushreg %rsi
	pushq	%rdi
	.seh_pushreg %rdi
	pushq	%rbx
	.seh_pushreg %rbx
	subq	$56, %rsp
	.seh_stackalloc 56
	leaq	128(%rdx), %rbp
.Ltmp1126:
	movaps	%xmm6, 32(%rsp)
	.seh_savexmm %xmm6, 32
	.seh_endprologue
	.cv_loc	458 18 573 0
	cmpb	$0, 159(%rbp)
	jne	.LBB42_62
.Ltmp1127:
	movaps	32(%rsp), %xmm6
	addq	$56, %rsp
	popq	%rbx
	popq	%rdi
	popq	%rsi
	popq	%r12
	popq	%r13
	popq	%r14
	popq	%r15
	popq	%rbp
	retq
.Ltmp1128:
.LBB42_62:
	movq	136(%rbp), %rcx
	callq	_ZN4core3ptr40drop_in_place$LT$std..thread..Thread$GT$17hf8a0d34335fb1b2fE
	movaps	32(%rsp), %xmm6
	addq	$56, %rsp
	popq	%rbx
	popq	%rdi
	popq	%rsi
	popq	%r12
	popq	%r13
	popq	%r14
	popq	%r15
	popq	%rbp
	retq
.Ltmp1129:
	.seh_handlerdata
	.section	.text,"xr",one_only,_ZN10concurrent4main17h5995471d045fea41E
	.seh_endproc
	.def	"?dtor$63@?0?_ZN10concurrent4main17h5995471d045fea41E@4HA";
	.scl	3;
	.type	32;
	.endef
	.p2align	4, 0x90
"?dtor$63@?0?_ZN10concurrent4main17h5995471d045fea41E@4HA":
.seh_proc "?dtor$63@?0?_ZN10concurrent4main17h5995471d045fea41E@4HA"
.LBB42_63:
	movq	%rdx, 16(%rsp)
	pushq	%rbp
	.seh_pushreg %rbp
	pushq	%r15
	.seh_pushreg %r15
	pushq	%r14
	.seh_pushreg %r14
	pushq	%r13
	.seh_pushreg %r13
	pushq	%r12
	.seh_pushreg %r12
	pushq	%rsi
	.seh_pushreg %rsi
	pushq	%rdi
	.seh_pushreg %rdi
	pushq	%rbx
	.seh_pushreg %rbx
	subq	$56, %rsp
	.seh_stackalloc 56
	leaq	128(%rdx), %rbp
	movaps	%xmm6, 32(%rsp)
	.seh_savexmm %xmm6, 32
	.seh_endprologue
	movzbl	165(%rbp), %ebx
	.cv_loc	458 18 573 0
	cmpb	$0, 166(%rbp)
	je	.LBB42_64
.Ltmp1130:
	movdqa	-32(%rbp), %xmm0
	movq	%xmm0, %rdx
	movq	40(%rbp), %rcx
	callq	_ZN4core3ptr70drop_in_place$LT$core..option..Option$LT$alloc..string..String$GT$$GT$17hf2ffb45f39363c00E
	movb	%bl, 155(%rbp)
	movaps	32(%rsp), %xmm6
	addq	$56, %rsp
	popq	%rbx
	popq	%rdi
	popq	%rsi
	popq	%r12
	popq	%r13
	popq	%r14
	popq	%r15
	popq	%rbp
	retq
.Ltmp1131:
.LBB42_64:
	movb	%bl, 155(%rbp)
	movaps	32(%rsp), %xmm6
	addq	$56, %rsp
	popq	%rbx
	popq	%rdi
	popq	%rsi
	popq	%r12
	popq	%r13
	popq	%r14
	popq	%r15
	popq	%rbp
	retq
.Ltmp1132:
	.seh_handlerdata
	.section	.text,"xr",one_only,_ZN10concurrent4main17h5995471d045fea41E
	.seh_endproc
	.def	"?dtor$66@?0?_ZN10concurrent4main17h5995471d045fea41E@4HA";
	.scl	3;
	.type	32;
	.endef
	.p2align	4, 0x90
"?dtor$66@?0?_ZN10concurrent4main17h5995471d045fea41E@4HA":
.seh_proc "?dtor$66@?0?_ZN10concurrent4main17h5995471d045fea41E@4HA"
.LBB42_66:
	movq	%rdx, 16(%rsp)
	pushq	%rbp
	.seh_pushreg %rbp
	pushq	%r15
	.seh_pushreg %r15
	pushq	%r14
	.seh_pushreg %r14
	pushq	%r13
	.seh_pushreg %r13
	pushq	%r12
	.seh_pushreg %r12
	pushq	%rsi
	.seh_pushreg %rsi
	pushq	%rdi
	.seh_pushreg %rdi
	pushq	%rbx
	.seh_pushreg %rbx
	subq	$56, %rsp
	.seh_stackalloc 56
	leaq	128(%rdx), %rbp
	movaps	%xmm6, 32(%rsp)
	.seh_savexmm %xmm6, 32
	.seh_endprologue
	cmpb	$0, 155(%rbp)
	je	.LBB42_68
.Ltmp1133:
	xorl	%ecx, %ecx
	callq	_ZN4core3ptr103drop_in_place$LT$core..option..Option$LT$alloc..sync..Arc$LT$std..thread..scoped..ScopeData$GT$$GT$$GT$17h63658dc606daf782E
.Ltmp1134:
.LBB42_68:
	.cv_loc	458 18 460 0
	movaps	32(%rsp), %xmm6
	addq	$56, %rsp
	popq	%rbx
	popq	%rdi
	popq	%rsi
	popq	%r12
	popq	%r13
	popq	%r14
	popq	%r15
	popq	%rbp
	retq
.Ltmp1135:
	.seh_handlerdata
	.section	.text,"xr",one_only,_ZN10concurrent4main17h5995471d045fea41E
	.seh_endproc
	.def	"?dtor$69@?0?_ZN10concurrent4main17h5995471d045fea41E@4HA";
	.scl	3;
	.type	32;
	.endef
	.p2align	4, 0x90
"?dtor$69@?0?_ZN10concurrent4main17h5995471d045fea41E@4HA":
.seh_proc "?dtor$69@?0?_ZN10concurrent4main17h5995471d045fea41E@4HA"
.LBB42_69:
	movq	%rdx, 16(%rsp)
	pushq	%rbp
	.seh_pushreg %rbp
	pushq	%r15
	.seh_pushreg %r15
	pushq	%r14
	.seh_pushreg %r14
	pushq	%r13
	.seh_pushreg %r13
	pushq	%r12
	.seh_pushreg %r12
	pushq	%rsi
	.seh_pushreg %rsi
	pushq	%rdi
	.seh_pushreg %rdi
	pushq	%rbx
	.seh_pushreg %rbx
	subq	$56, %rsp
	.seh_stackalloc 56
	leaq	128(%rdx), %rbp
	movaps	%xmm6, 32(%rsp)
	.seh_savexmm %xmm6, 32
	.seh_endprologue
	leaq	48(%rbp), %rcx
.Ltmp1136:
	.cv_loc	503 33 1033 0
	callq	_ZN4core3ptr42drop_in_place$LT$std..io..error..Error$GT$17hea0d4fdae7d1d80dE
	movaps	32(%rsp), %xmm6
	.cv_loc	503 33 1027 0
	addq	$56, %rsp
	popq	%rbx
	popq	%rdi
.Ltmp1137:
	popq	%rsi
	popq	%r12
	popq	%r13
	popq	%r14
	popq	%r15
	popq	%rbp
	retq
.Ltmp1138:
	.seh_handlerdata
	.section	.text,"xr",one_only,_ZN10concurrent4main17h5995471d045fea41E
	.seh_endproc
	.def	"?dtor$92@?0?_ZN10concurrent4main17h5995471d045fea41E@4HA";
	.scl	3;
	.type	32;
	.endef
	.p2align	4, 0x90
"?dtor$92@?0?_ZN10concurrent4main17h5995471d045fea41E@4HA":
.seh_proc "?dtor$92@?0?_ZN10concurrent4main17h5995471d045fea41E@4HA"
.LBB42_92:
	movq	%rdx, 16(%rsp)
	pushq	%rbp
	.seh_pushreg %rbp
.Ltmp1139:
	pushq	%r15
	.seh_pushreg %r15
	pushq	%r14
	.seh_pushreg %r14
	pushq	%r13
	.seh_pushreg %r13
	pushq	%r12
	.seh_pushreg %r12
	pushq	%rsi
	.seh_pushreg %rsi
	pushq	%rdi
	.seh_pushreg %rdi
	pushq	%rbx
	.seh_pushreg %rbx
	subq	$56, %rsp
	.seh_stackalloc 56
	leaq	128(%rdx), %rbp
.Ltmp1140:
	movaps	%xmm6, 32(%rsp)
	.seh_savexmm %xmm6, 32
	.seh_endprologue
	.cv_loc	513 28 273 0
	cmpb	$0, 134(%rbp)
	je	.LBB42_93
.Ltmp1141:
	movq	104(%rbp), %rdx
	movb	$0, 164(%rbp)
	movb	$1, 163(%rbp)
	movq	136(%rbp), %rcx
	callq	_ZN4core3ptr46drop_in_place$LT$alloc..vec..Vec$LT$u8$GT$$GT$17h3b5c9988cdef32faE
.Ltmp1142:
.LBB42_93:
	movb	$0, 164(%rbp)
	movb	$1, 163(%rbp)
	movaps	32(%rsp), %xmm6
	addq	$56, %rsp
	popq	%rbx
	popq	%rdi
	popq	%rsi
	popq	%r12
	popq	%r13
.Ltmp1143:
	popq	%r14
	popq	%r15
	popq	%rbp
	retq
.Ltmp1144:
	.seh_handlerdata
	.section	.text,"xr",one_only,_ZN10concurrent4main17h5995471d045fea41E
	.seh_endproc
	.def	"?dtor$95@?0?_ZN10concurrent4main17h5995471d045fea41E@4HA";
	.scl	3;
	.type	32;
	.endef
	.p2align	4, 0x90
"?dtor$95@?0?_ZN10concurrent4main17h5995471d045fea41E@4HA":
.seh_proc "?dtor$95@?0?_ZN10concurrent4main17h5995471d045fea41E@4HA"
.LBB42_95:
	movq	%rdx, 16(%rsp)
	pushq	%rbp
	.seh_pushreg %rbp
	pushq	%r15
	.seh_pushreg %r15
	pushq	%r14
	.seh_pushreg %r14
	pushq	%r13
	.seh_pushreg %r13
	pushq	%r12
	.seh_pushreg %r12
	pushq	%rsi
	.seh_pushreg %rsi
	pushq	%rdi
	.seh_pushreg %rdi
	pushq	%rbx
	.seh_pushreg %rbx
	subq	$56, %rsp
	.seh_stackalloc 56
	leaq	128(%rdx), %rbp
.Ltmp1145:
	movaps	%xmm6, 32(%rsp)
	.seh_savexmm %xmm6, 32
	.seh_endprologue
	leaq	48(%rbp), %rcx
.Ltmp1146:
	.cv_loc	605 33 1033 0
	callq	_ZN4core3ptr48drop_in_place$LT$alloc..ffi..c_str..NulError$GT$17hef9c01c00a16a3dbE
	movb	$0, 164(%rbp)
	movb	$1, 163(%rbp)
	movaps	32(%rsp), %xmm6
	addq	$56, %rsp
	popq	%rbx
	popq	%rdi
.Ltmp1147:
	popq	%rsi
	popq	%r12
	popq	%r13
.Ltmp1148:
	popq	%r14
	popq	%r15
	popq	%rbp
	retq
.Ltmp1149:
	.seh_handlerdata
	.section	.text,"xr",one_only,_ZN10concurrent4main17h5995471d045fea41E
	.seh_endproc
	.def	"?dtor$97@?0?_ZN10concurrent4main17h5995471d045fea41E@4HA";
	.scl	3;
	.type	32;
	.endef
	.p2align	4, 0x90
"?dtor$97@?0?_ZN10concurrent4main17h5995471d045fea41E@4HA":
.seh_proc "?dtor$97@?0?_ZN10concurrent4main17h5995471d045fea41E@4HA"
.LBB42_97:
	movq	%rdx, 16(%rsp)
	pushq	%rbp
	.seh_pushreg %rbp
	pushq	%r15
	.seh_pushreg %r15
	pushq	%r14
	.seh_pushreg %r14
	pushq	%r13
	.seh_pushreg %r13
	pushq	%r12
	.seh_pushreg %r12
	pushq	%rsi
	.seh_pushreg %rsi
	pushq	%rdi
	.seh_pushreg %rdi
	pushq	%rbx
	.seh_pushreg %rbx
	subq	$56, %rsp
	.seh_stackalloc 56
	leaq	128(%rdx), %rbp
.Ltmp1150:
	movaps	%xmm6, 32(%rsp)
	.seh_savexmm %xmm6, 32
	.seh_endprologue
	movq	136(%rbp), %rcx
	.cv_loc	508 18 573 0
	callq	_ZN4core3ptr40drop_in_place$LT$std..thread..Thread$GT$17hf8a0d34335fb1b2fE
	movb	$0, 164(%rbp)
	movb	$0, 163(%rbp)
	movaps	32(%rsp), %xmm6
	addq	$56, %rsp
	popq	%rbx
	popq	%rdi
	popq	%rsi
	popq	%r12
	popq	%r13
	popq	%r14
	popq	%r15
	popq	%rbp
	retq
.Ltmp1151:
	.seh_handlerdata
	.section	.text,"xr",one_only,_ZN10concurrent4main17h5995471d045fea41E
	.seh_endproc
	.def	"?dtor$98@?0?_ZN10concurrent4main17h5995471d045fea41E@4HA";
	.scl	3;
	.type	32;
	.endef
	.p2align	4, 0x90
"?dtor$98@?0?_ZN10concurrent4main17h5995471d045fea41E@4HA":
.seh_proc "?dtor$98@?0?_ZN10concurrent4main17h5995471d045fea41E@4HA"
.LBB42_98:
	movq	%rdx, 16(%rsp)
	pushq	%rbp
	.seh_pushreg %rbp
	pushq	%r15
	.seh_pushreg %r15
	pushq	%r14
	.seh_pushreg %r14
	pushq	%r13
	.seh_pushreg %r13
	pushq	%r12
	.seh_pushreg %r12
	pushq	%rsi
	.seh_pushreg %rsi
	pushq	%rdi
	.seh_pushreg %rdi
	pushq	%rbx
	.seh_pushreg %rbx
	subq	$56, %rsp
	.seh_stackalloc 56
	leaq	128(%rdx), %rbp
.Ltmp1152:
	movaps	%xmm6, 32(%rsp)
	.seh_savexmm %xmm6, 32
	.seh_endprologue
	movb	$1, 154(%rbp)
	leaq	48(%rbp), %rcx
.Ltmp1153:
	.cv_loc	526 11 218 0
	callq	_ZN4core3ptr85drop_in_place$LT$alloc..sync..ArcInner$LT$std..thread..Packet$LT$$LP$$RP$$GT$$GT$$GT$17hab44cc3f56671070E
	movb	$1, 154(%rbp)
	movaps	32(%rsp), %xmm6
	addq	$56, %rsp
	popq	%rbx
	popq	%rdi
	popq	%rsi
	popq	%r12
	popq	%r13
.Ltmp1154:
	popq	%r14
	popq	%r15
	popq	%rbp
	retq
.Ltmp1155:
	.seh_handlerdata
	.section	.text,"xr",one_only,_ZN10concurrent4main17h5995471d045fea41E
	.seh_endproc
	.def	"?dtor$111@?0?_ZN10concurrent4main17h5995471d045fea41E@4HA";
	.scl	3;
	.type	32;
	.endef
	.p2align	4, 0x90
"?dtor$111@?0?_ZN10concurrent4main17h5995471d045fea41E@4HA":
.seh_proc "?dtor$111@?0?_ZN10concurrent4main17h5995471d045fea41E@4HA"
.LBB42_111:
	movq	%rdx, 16(%rsp)
	pushq	%rbp
	.seh_pushreg %rbp
	pushq	%r15
	.seh_pushreg %r15
	pushq	%r14
	.seh_pushreg %r14
	pushq	%r13
	.seh_pushreg %r13
	pushq	%r12
	.seh_pushreg %r12
	pushq	%rsi
	.seh_pushreg %rsi
	pushq	%rdi
	.seh_pushreg %rdi
	pushq	%rbx
	.seh_pushreg %rbx
	subq	$56, %rsp
	.seh_stackalloc 56
	leaq	128(%rdx), %rbp
.Ltmp1156:
	movaps	%xmm6, 32(%rsp)
	.seh_savexmm %xmm6, 32
	.seh_endprologue
	movb	$0, 160(%rbp)
	leaq	48(%rbp), %rcx
.Ltmp1157:
	.cv_loc	546 11 218 0
	callq	_ZN4core3ptr156drop_in_place$LT$std..thread..Builder..spawn_unchecked_$LT$concurrent..consumer..$u7b$$u7b$closure$u7d$$u7d$$C$$LP$$RP$$GT$..$u7b$$u7b$closure$u7d$$u7d$$GT$17h4c86d115223721efE
	movb	$0, 160(%rbp)
	movaps	32(%rsp), %xmm6
	addq	$56, %rsp
	popq	%rbx
	popq	%rdi
	popq	%rsi
	popq	%r12
	popq	%r13
.Ltmp1158:
	popq	%r14
	popq	%r15
	popq	%rbp
	retq
.Ltmp1159:
	.seh_handlerdata
	.section	.text,"xr",one_only,_ZN10concurrent4main17h5995471d045fea41E
	.seh_endproc
	.def	"?dtor$119@?0?_ZN10concurrent4main17h5995471d045fea41E@4HA";
	.scl	3;
	.type	32;
	.endef
	.p2align	4, 0x90
"?dtor$119@?0?_ZN10concurrent4main17h5995471d045fea41E@4HA":
.seh_proc "?dtor$119@?0?_ZN10concurrent4main17h5995471d045fea41E@4HA"
.LBB42_119:
	movq	%rdx, 16(%rsp)
	pushq	%rbp
	.seh_pushreg %rbp
	pushq	%r15
	.seh_pushreg %r15
	pushq	%r14
	.seh_pushreg %r14
	pushq	%r13
	.seh_pushreg %r13
	pushq	%r12
	.seh_pushreg %r12
	pushq	%rsi
	.seh_pushreg %rsi
	pushq	%rdi
	.seh_pushreg %rdi
	pushq	%rbx
	.seh_pushreg %rbx
	subq	$56, %rsp
	.seh_stackalloc 56
	leaq	128(%rdx), %rbp
.Ltmp1160:
	movaps	%xmm6, 32(%rsp)
	.seh_savexmm %xmm6, 32
	.seh_endprologue
	.cv_loc	508 18 573 0
	cmpb	$0, 160(%rbp)
	je	.LBB42_120
.Ltmp1161:
	leaq	96(%rbp), %rcx
	callq	_ZN4core3ptr156drop_in_place$LT$std..thread..Builder..spawn_unchecked_$LT$concurrent..consumer..$u7b$$u7b$closure$u7d$$u7d$$C$$LP$$RP$$GT$..$u7b$$u7b$closure$u7d$$u7d$$GT$17h4c86d115223721efE
	movb	$1, 152(%rbp)
	movb	$0, 151(%rbp)
	movaps	32(%rsp), %xmm6
	addq	$56, %rsp
	popq	%rbx
	popq	%rdi
	popq	%rsi
	popq	%r12
	popq	%r13
	popq	%r14
	popq	%r15
	popq	%rbp
	retq
.Ltmp1162:
.LBB42_120:
	movb	$1, 152(%rbp)
	movb	$0, 151(%rbp)
	movaps	32(%rsp), %xmm6
	addq	$56, %rsp
	popq	%rbx
	popq	%rdi
	popq	%rsi
	popq	%r12
	popq	%r13
	popq	%r14
	popq	%r15
	popq	%rbp
	retq
.Ltmp1163:
	.seh_handlerdata
	.section	.text,"xr",one_only,_ZN10concurrent4main17h5995471d045fea41E
	.seh_endproc
	.def	"?dtor$123@?0?_ZN10concurrent4main17h5995471d045fea41E@4HA";
	.scl	3;
	.type	32;
	.endef
	.p2align	4, 0x90
"?dtor$123@?0?_ZN10concurrent4main17h5995471d045fea41E@4HA":
.seh_proc "?dtor$123@?0?_ZN10concurrent4main17h5995471d045fea41E@4HA"
.LBB42_123:
	movq	%rdx, 16(%rsp)
	pushq	%rbp
	.seh_pushreg %rbp
	pushq	%r15
	.seh_pushreg %r15
	pushq	%r14
	.seh_pushreg %r14
	pushq	%r13
	.seh_pushreg %r13
	pushq	%r12
	.seh_pushreg %r12
	pushq	%rsi
	.seh_pushreg %rsi
	pushq	%rdi
	.seh_pushreg %rdi
	pushq	%rbx
	.seh_pushreg %rbx
	subq	$56, %rsp
	.seh_stackalloc 56
	leaq	128(%rdx), %rbp
.Ltmp1164:
	movaps	%xmm6, 32(%rsp)
	.seh_savexmm %xmm6, 32
	.seh_endprologue
	movzbl	151(%rbp), %ebx
	.cv_loc	508 18 573 0
	cmpb	$0, 152(%rbp)
	je	.LBB42_124
.Ltmp1165:
	movb	%bl, 153(%rbp)
	movaps	32(%rsp), %xmm6
	addq	$56, %rsp
	popq	%rbx
	popq	%rdi
	popq	%rsi
	popq	%r12
	popq	%r13
	popq	%r14
	popq	%r15
	popq	%rbp
	retq
.Ltmp1166:
.LBB42_124:
	movq	32(%rbp), %rcx
	callq	_ZN4core3ptr129drop_in_place$LT$core..option..Option$LT$alloc..sync..Arc$LT$std..sync..mutex..Mutex$LT$alloc..vec..Vec$LT$u8$GT$$GT$$GT$$GT$$GT$17haf66c382f93ff638E
	movb	%bl, 153(%rbp)
	movaps	32(%rsp), %xmm6
	addq	$56, %rsp
	popq	%rbx
	popq	%rdi
	popq	%rsi
	popq	%r12
	popq	%r13
	popq	%r14
	popq	%r15
	popq	%rbp
	retq
.Ltmp1167:
	.seh_handlerdata
	.section	.text,"xr",one_only,_ZN10concurrent4main17h5995471d045fea41E
	.seh_endproc
	.def	"?dtor$125@?0?_ZN10concurrent4main17h5995471d045fea41E@4HA";
	.scl	3;
	.type	32;
	.endef
	.p2align	4, 0x90
"?dtor$125@?0?_ZN10concurrent4main17h5995471d045fea41E@4HA":
.seh_proc "?dtor$125@?0?_ZN10concurrent4main17h5995471d045fea41E@4HA"
.LBB42_125:
	movq	%rdx, 16(%rsp)
	pushq	%rbp
	.seh_pushreg %rbp
	pushq	%r15
	.seh_pushreg %r15
	pushq	%r14
	.seh_pushreg %r14
	pushq	%r13
	.seh_pushreg %r13
	pushq	%r12
	.seh_pushreg %r12
	pushq	%rsi
	.seh_pushreg %rsi
	pushq	%rdi
	.seh_pushreg %rdi
	pushq	%rbx
	.seh_pushreg %rbx
	subq	$56, %rsp
	.seh_stackalloc 56
	leaq	128(%rdx), %rbp
.Ltmp1168:
	movaps	%xmm6, 32(%rsp)
	.seh_savexmm %xmm6, 32
	.seh_endprologue
	movzbl	153(%rbp), %ebx
	.cv_loc	508 18 573 0
	testb	%bl, %bl
	movq	120(%rbp), %rsi
	je	.LBB42_126
.Ltmp1169:
	movq	%rsi, %rcx
	callq	_ZN4core3ptr80drop_in_place$LT$alloc..sync..Arc$LT$std..thread..Packet$LT$$LP$$RP$$GT$$GT$$GT$17ha058be337863582dE
.Ltmp1170:
.LBB42_126:
	.cv_loc	508 18 573 0
	movq	%rsi, %rcx
	callq	_ZN4core3ptr80drop_in_place$LT$alloc..sync..Arc$LT$std..thread..Packet$LT$$LP$$RP$$GT$$GT$$GT$17ha058be337863582dE
	movb	%bl, 154(%rbp)
	movaps	32(%rsp), %xmm6
	addq	$56, %rsp
	popq	%rbx
	popq	%rdi
	popq	%rsi
	popq	%r12
	popq	%r13
	popq	%r14
	popq	%r15
	popq	%rbp
	retq
.Ltmp1171:
	.seh_handlerdata
	.section	.text,"xr",one_only,_ZN10concurrent4main17h5995471d045fea41E
	.seh_endproc
	.def	"?dtor$129@?0?_ZN10concurrent4main17h5995471d045fea41E@4HA";
	.scl	3;
	.type	32;
	.endef
	.p2align	4, 0x90
"?dtor$129@?0?_ZN10concurrent4main17h5995471d045fea41E@4HA":
.seh_proc "?dtor$129@?0?_ZN10concurrent4main17h5995471d045fea41E@4HA"
.LBB42_129:
	movq	%rdx, 16(%rsp)
	pushq	%rbp
	.seh_pushreg %rbp
	pushq	%r15
	.seh_pushreg %r15
	pushq	%r14
	.seh_pushreg %r14
	pushq	%r13
	.seh_pushreg %r13
	pushq	%r12
	.seh_pushreg %r12
	pushq	%rsi
	.seh_pushreg %rsi
	pushq	%rdi
	.seh_pushreg %rdi
	pushq	%rbx
	.seh_pushreg %rbx
	subq	$56, %rsp
	.seh_stackalloc 56
	leaq	128(%rdx), %rbp
.Ltmp1172:
	movaps	%xmm6, 32(%rsp)
	.seh_savexmm %xmm6, 32
	.seh_endprologue
	.cv_loc	508 18 573 0
	cmpb	$0, 154(%rbp)
	jne	.LBB42_130
.Ltmp1173:
	movaps	32(%rsp), %xmm6
	addq	$56, %rsp
	popq	%rbx
	popq	%rdi
	popq	%rsi
	popq	%r12
	popq	%r13
	popq	%r14
	popq	%r15
	popq	%rbp
	retq
.Ltmp1174:
.LBB42_130:
	movq	136(%rbp), %rcx
	callq	_ZN4core3ptr40drop_in_place$LT$std..thread..Thread$GT$17hf8a0d34335fb1b2fE
	movaps	32(%rsp), %xmm6
	addq	$56, %rsp
	popq	%rbx
	popq	%rdi
	popq	%rsi
	popq	%r12
	popq	%r13
	popq	%r14
	popq	%r15
	popq	%rbp
	retq
.Ltmp1175:
	.seh_handlerdata
	.section	.text,"xr",one_only,_ZN10concurrent4main17h5995471d045fea41E
	.seh_endproc
	.def	"?dtor$131@?0?_ZN10concurrent4main17h5995471d045fea41E@4HA";
	.scl	3;
	.type	32;
	.endef
	.p2align	4, 0x90
"?dtor$131@?0?_ZN10concurrent4main17h5995471d045fea41E@4HA":
.seh_proc "?dtor$131@?0?_ZN10concurrent4main17h5995471d045fea41E@4HA"
.LBB42_131:
	movq	%rdx, 16(%rsp)
	pushq	%rbp
	.seh_pushreg %rbp
	pushq	%r15
	.seh_pushreg %r15
	pushq	%r14
	.seh_pushreg %r14
	pushq	%r13
	.seh_pushreg %r13
	pushq	%r12
	.seh_pushreg %r12
	pushq	%rsi
	.seh_pushreg %rsi
	pushq	%rdi
	.seh_pushreg %rdi
	pushq	%rbx
	.seh_pushreg %rbx
	subq	$56, %rsp
	.seh_stackalloc 56
	leaq	128(%rdx), %rbp
	movaps	%xmm6, 32(%rsp)
	.seh_savexmm %xmm6, 32
	.seh_endprologue
	movzbl	163(%rbp), %ebx
	.cv_loc	508 18 573 0
	cmpb	$0, 164(%rbp)
	je	.LBB42_132
.Ltmp1176:
	movdqa	-32(%rbp), %xmm0
	movq	%xmm0, %rdx
	movq	40(%rbp), %rcx
	callq	_ZN4core3ptr70drop_in_place$LT$core..option..Option$LT$alloc..string..String$GT$$GT$17hf2ffb45f39363c00E
	movb	%bl, 150(%rbp)
	movaps	32(%rsp), %xmm6
	addq	$56, %rsp
	popq	%rbx
	popq	%rdi
	popq	%rsi
	popq	%r12
	popq	%r13
	popq	%r14
	popq	%r15
	popq	%rbp
	retq
.Ltmp1177:
.LBB42_132:
	movb	%bl, 150(%rbp)
	movaps	32(%rsp), %xmm6
	addq	$56, %rsp
	popq	%rbx
	popq	%rdi
	popq	%rsi
	popq	%r12
	popq	%r13
	popq	%r14
	popq	%r15
	popq	%rbp
	retq
.Ltmp1178:
	.seh_handlerdata
	.section	.text,"xr",one_only,_ZN10concurrent4main17h5995471d045fea41E
	.seh_endproc
	.def	"?dtor$134@?0?_ZN10concurrent4main17h5995471d045fea41E@4HA";
	.scl	3;
	.type	32;
	.endef
	.p2align	4, 0x90
"?dtor$134@?0?_ZN10concurrent4main17h5995471d045fea41E@4HA":
.seh_proc "?dtor$134@?0?_ZN10concurrent4main17h5995471d045fea41E@4HA"
.LBB42_134:
	movq	%rdx, 16(%rsp)
	pushq	%rbp
	.seh_pushreg %rbp
	pushq	%r15
	.seh_pushreg %r15
	pushq	%r14
	.seh_pushreg %r14
	pushq	%r13
	.seh_pushreg %r13
	pushq	%r12
	.seh_pushreg %r12
	pushq	%rsi
	.seh_pushreg %rsi
	pushq	%rdi
	.seh_pushreg %rdi
	pushq	%rbx
	.seh_pushreg %rbx
	subq	$56, %rsp
	.seh_stackalloc 56
	leaq	128(%rdx), %rbp
	movaps	%xmm6, 32(%rsp)
	.seh_savexmm %xmm6, 32
	.seh_endprologue
	cmpb	$0, 150(%rbp)
	je	.LBB42_136
.Ltmp1179:
	xorl	%ecx, %ecx
	callq	_ZN4core3ptr103drop_in_place$LT$core..option..Option$LT$alloc..sync..Arc$LT$std..thread..scoped..ScopeData$GT$$GT$$GT$17h63658dc606daf782E
.Ltmp1180:
.LBB42_136:
	movb	$1, 162(%rbp)
	movaps	32(%rsp), %xmm6
	addq	$56, %rsp
	popq	%rbx
	popq	%rdi
	popq	%rsi
	popq	%r12
	popq	%r13
	popq	%r14
	popq	%r15
	popq	%rbp
	retq
	.seh_handlerdata
	.section	.text,"xr",one_only,_ZN10concurrent4main17h5995471d045fea41E
	.seh_endproc
	.def	"?dtor$137@?0?_ZN10concurrent4main17h5995471d045fea41E@4HA";
	.scl	3;
	.type	32;
	.endef
	.p2align	4, 0x90
"?dtor$137@?0?_ZN10concurrent4main17h5995471d045fea41E@4HA":
.seh_proc "?dtor$137@?0?_ZN10concurrent4main17h5995471d045fea41E@4HA"
.LBB42_137:
.Ltmp1181:
	movq	%rdx, 16(%rsp)
	pushq	%rbp
	.seh_pushreg %rbp
	pushq	%r15
	.seh_pushreg %r15
	pushq	%r14
	.seh_pushreg %r14
	pushq	%r13
	.seh_pushreg %r13
	pushq	%r12
	.seh_pushreg %r12
	pushq	%rsi
	.seh_pushreg %rsi
	pushq	%rdi
	.seh_pushreg %rdi
	pushq	%rbx
	.seh_pushreg %rbx
	subq	$56, %rsp
	.seh_stackalloc 56
	leaq	128(%rdx), %rbp
	movaps	%xmm6, 32(%rsp)
	.seh_savexmm %xmm6, 32
	.seh_endprologue
	movb	$1, 162(%rbp)
	leaq	48(%rbp), %rcx
.Ltmp1182:
	.cv_loc	553 33 1033 0
	callq	_ZN4core3ptr42drop_in_place$LT$std..io..error..Error$GT$17hea0d4fdae7d1d80dE
	movb	$1, 162(%rbp)
	movaps	32(%rsp), %xmm6
	addq	$56, %rsp
	popq	%rbx
	popq	%rdi
.Ltmp1183:
	popq	%rsi
	popq	%r12
	popq	%r13
	popq	%r14
	popq	%r15
	popq	%rbp
	retq
.Ltmp1184:
	.seh_handlerdata
	.section	.text,"xr",one_only,_ZN10concurrent4main17h5995471d045fea41E
	.seh_endproc
	.def	"?dtor$138@?0?_ZN10concurrent4main17h5995471d045fea41E@4HA";
	.scl	3;
	.type	32;
	.endef
	.p2align	4, 0x90
"?dtor$138@?0?_ZN10concurrent4main17h5995471d045fea41E@4HA":
.seh_proc "?dtor$138@?0?_ZN10concurrent4main17h5995471d045fea41E@4HA"
.LBB42_138:
	movq	%rdx, 16(%rsp)
	pushq	%rbp
	.seh_pushreg %rbp
	pushq	%r15
	.seh_pushreg %r15
	pushq	%r14
	.seh_pushreg %r14
	pushq	%r13
	.seh_pushreg %r13
	pushq	%r12
	.seh_pushreg %r12
	pushq	%rsi
	.seh_pushreg %rsi
	pushq	%rdi
	.seh_pushreg %rdi
	pushq	%rbx
	.seh_pushreg %rbx
	subq	$56, %rsp
	.seh_stackalloc 56
	leaq	128(%rdx), %rbp
	movaps	%xmm6, 32(%rsp)
	.seh_savexmm %xmm6, 32
	.seh_endprologue
	movq	120(%rbp), %rcx
.Ltmp1185:
	.cv_loc	555 18 1440 0
	callq	_ZN4core3ptr40drop_in_place$LT$std..thread..Thread$GT$17hf8a0d34335fb1b2fE
	movb	$1, 167(%rbp)
	movq	136(%rbp), %rcx
	callq	_ZN4core3ptr80drop_in_place$LT$alloc..sync..Arc$LT$std..thread..Packet$LT$$LP$$RP$$GT$$GT$$GT$17ha058be337863582dE
	movb	$1, 167(%rbp)
	movaps	32(%rsp), %xmm6
	addq	$56, %rsp
	popq	%rbx
	popq	%rdi
	popq	%rsi
	popq	%r12
	popq	%r13
	popq	%r14
	popq	%r15
	popq	%rbp
	retq
.Ltmp1186:
	.seh_handlerdata
	.section	.text,"xr",one_only,_ZN10concurrent4main17h5995471d045fea41E
	.seh_endproc
	.def	"?dtor$151@?0?_ZN10concurrent4main17h5995471d045fea41E@4HA";
	.scl	3;
	.type	32;
	.endef
	.p2align	4, 0x90
"?dtor$151@?0?_ZN10concurrent4main17h5995471d045fea41E@4HA":
.seh_proc "?dtor$151@?0?_ZN10concurrent4main17h5995471d045fea41E@4HA"
.LBB42_151:
	movq	%rdx, 16(%rsp)
	pushq	%rbp
	.seh_pushreg %rbp
	pushq	%r15
	.seh_pushreg %r15
	pushq	%r14
	.seh_pushreg %r14
	pushq	%r13
	.seh_pushreg %r13
	pushq	%r12
	.seh_pushreg %r12
	pushq	%rsi
	.seh_pushreg %rsi
	pushq	%rdi
	.seh_pushreg %rdi
	pushq	%rbx
	.seh_pushreg %rbx
	subq	$56, %rsp
	.seh_stackalloc 56
	leaq	128(%rdx), %rbp
	movaps	%xmm6, 32(%rsp)
	.seh_savexmm %xmm6, 32
	.seh_endprologue
	movq	120(%rbp), %rcx
.Ltmp1187:
	.cv_loc	581 18 1440 0
	callq	_ZN4core3ptr40drop_in_place$LT$std..thread..Thread$GT$17hf8a0d34335fb1b2fE
	movb	$0, 167(%rbp)
	movq	136(%rbp), %rcx
	callq	_ZN4core3ptr80drop_in_place$LT$alloc..sync..Arc$LT$std..thread..Packet$LT$$LP$$RP$$GT$$GT$$GT$17ha058be337863582dE
	movb	$0, 167(%rbp)
	movaps	32(%rsp), %xmm6
	addq	$56, %rsp
	popq	%rbx
	popq	%rdi
	popq	%rsi
	popq	%r12
	popq	%r13
	popq	%r14
	popq	%r15
	popq	%rbp
	retq
.Ltmp1188:
	.seh_handlerdata
	.section	.text,"xr",one_only,_ZN10concurrent4main17h5995471d045fea41E
	.seh_endproc
	.def	"?dtor$164@?0?_ZN10concurrent4main17h5995471d045fea41E@4HA";
	.scl	3;
	.type	32;
	.endef
	.p2align	4, 0x90
"?dtor$164@?0?_ZN10concurrent4main17h5995471d045fea41E@4HA":
.seh_proc "?dtor$164@?0?_ZN10concurrent4main17h5995471d045fea41E@4HA"
.LBB42_164:
	movq	%rdx, 16(%rsp)
	pushq	%rbp
	.seh_pushreg %rbp
	pushq	%r15
	.seh_pushreg %r15
	pushq	%r14
	.seh_pushreg %r14
	pushq	%r13
	.seh_pushreg %r13
	pushq	%r12
	.seh_pushreg %r12
	pushq	%rsi
	.seh_pushreg %rsi
	pushq	%rdi
	.seh_pushreg %rdi
	pushq	%rbx
	.seh_pushreg %rbx
	subq	$56, %rsp
	.seh_stackalloc 56
	leaq	128(%rdx), %rbp
	movaps	%xmm6, 32(%rsp)
	.seh_savexmm %xmm6, 32
	.seh_endprologue
	.cv_loc	449 1 53 0
	cmpb	$0, 167(%rbp)
	je	.LBB42_165
	leaq	48(%rbp), %rcx
	callq	_ZN4core3ptr60drop_in_place$LT$std..thread..JoinHandle$LT$$LP$$RP$$GT$$GT$17h04f184e00f2018e6E
	movb	$0, 162(%rbp)
	movaps	32(%rsp), %xmm6
	addq	$56, %rsp
	popq	%rbx
	popq	%rdi
	popq	%rsi
	popq	%r12
	popq	%r13
	popq	%r14
	popq	%r15
	popq	%rbp
	retq
.Ltmp1189:
.LBB42_165:
	movb	$0, 162(%rbp)
	movaps	32(%rsp), %xmm6
	addq	$56, %rsp
	popq	%rbx
	popq	%rdi
	popq	%rsi
	popq	%r12
	popq	%r13
	popq	%r14
	popq	%r15
	popq	%rbp
	retq
	.seh_handlerdata
	.section	.text,"xr",one_only,_ZN10concurrent4main17h5995471d045fea41E
	.seh_endproc
	.def	"?dtor$167@?0?_ZN10concurrent4main17h5995471d045fea41E@4HA";
	.scl	3;
	.type	32;
	.endef
	.p2align	4, 0x90
"?dtor$167@?0?_ZN10concurrent4main17h5995471d045fea41E@4HA":
.seh_proc "?dtor$167@?0?_ZN10concurrent4main17h5995471d045fea41E@4HA"
.LBB42_167:
	movq	%rdx, 16(%rsp)
	pushq	%rbp
	.seh_pushreg %rbp
	pushq	%r15
	.seh_pushreg %r15
	pushq	%r14
	.seh_pushreg %r14
	pushq	%r13
	.seh_pushreg %r13
	pushq	%r12
	.seh_pushreg %r12
	pushq	%rsi
	.seh_pushreg %rsi
	pushq	%rdi
	.seh_pushreg %rdi
	pushq	%rbx
	.seh_pushreg %rbx
	subq	$56, %rsp
	.seh_stackalloc 56
	leaq	128(%rdx), %rbp
	movaps	%xmm6, 32(%rsp)
	.seh_savexmm %xmm6, 32
	.seh_endprologue
	.cv_loc	449 1 53 0
	cmpb	$0, 162(%rbp)
	je	.LBB42_169
	leaq	-56(%rbp), %rcx
	callq	_ZN4core3ptr60drop_in_place$LT$std..thread..JoinHandle$LT$$LP$$RP$$GT$$GT$17h04f184e00f2018e6E
.LBB42_169:
	.cv_loc	449 1 44 0
	movaps	32(%rsp), %xmm6
	addq	$56, %rsp
	popq	%rbx
	popq	%rdi
	popq	%rsi
	popq	%r12
	popq	%r13
	popq	%r14
	popq	%r15
	popq	%rbp
	retq
	.seh_handlerdata
	.section	.text,"xr",one_only,_ZN10concurrent4main17h5995471d045fea41E
	.seh_endproc
	.def	"?dtor$170@?0?_ZN10concurrent4main17h5995471d045fea41E@4HA";
	.scl	3;
	.type	32;
	.endef
	.p2align	4, 0x90
"?dtor$170@?0?_ZN10concurrent4main17h5995471d045fea41E@4HA":
.seh_proc "?dtor$170@?0?_ZN10concurrent4main17h5995471d045fea41E@4HA"
.LBB42_170:
.Ltmp1190:
	movq	%rdx, 16(%rsp)
	pushq	%rbp
	.seh_pushreg %rbp
	pushq	%r15
	.seh_pushreg %r15
	pushq	%r14
	.seh_pushreg %r14
	pushq	%r13
	.seh_pushreg %r13
	pushq	%r12
	.seh_pushreg %r12
	pushq	%rsi
	.seh_pushreg %rsi
	pushq	%rdi
	.seh_pushreg %rdi
	pushq	%rbx
	.seh_pushreg %rbx
	subq	$56, %rsp
	.seh_stackalloc 56
	leaq	128(%rdx), %rbp
	movaps	%xmm6, 32(%rsp)
	.seh_savexmm %xmm6, 32
	.seh_endprologue
	movq	136(%rbp), %rcx
.Ltmp1191:
	.cv_loc	458 18 573 0
	callq	_ZN4core3ptr40drop_in_place$LT$std..thread..Thread$GT$17hf8a0d34335fb1b2fE
	movb	$0, 155(%rbp)
	movaps	32(%rsp), %xmm6
	addq	$56, %rsp
	popq	%rbx
	popq	%rdi
	popq	%rsi
	popq	%r12
	popq	%r13
.Ltmp1192:
	popq	%r14
	popq	%r15
	popq	%rbp
	retq
.Ltmp1193:
	.seh_handlerdata
	.section	.text,"xr",one_only,_ZN10concurrent4main17h5995471d045fea41E
	.seh_endproc
	.def	"?dtor$171@?0?_ZN10concurrent4main17h5995471d045fea41E@4HA";
	.scl	3;
	.type	32;
	.endef
	.p2align	4, 0x90
"?dtor$171@?0?_ZN10concurrent4main17h5995471d045fea41E@4HA":
.seh_proc "?dtor$171@?0?_ZN10concurrent4main17h5995471d045fea41E@4HA"
.LBB42_171:
	movq	%rdx, 16(%rsp)
	pushq	%rbp
	.seh_pushreg %rbp
	pushq	%r15
	.seh_pushreg %r15
	pushq	%r14
	.seh_pushreg %r14
	pushq	%r13
	.seh_pushreg %r13
	pushq	%r12
	.seh_pushreg %r12
	pushq	%rsi
	.seh_pushreg %rsi
	pushq	%rdi
	.seh_pushreg %rdi
	pushq	%rbx
	.seh_pushreg %rbx
	subq	$56, %rsp
	.seh_stackalloc 56
	leaq	128(%rdx), %rbp
	movaps	%xmm6, 32(%rsp)
	.seh_savexmm %xmm6, 32
	.seh_endprologue
	movq	136(%rbp), %rcx
.Ltmp1194:
	.cv_loc	508 18 573 0
	callq	_ZN4core3ptr40drop_in_place$LT$std..thread..Thread$GT$17hf8a0d34335fb1b2fE
	movb	$0, 150(%rbp)
	movaps	32(%rsp), %xmm6
	addq	$56, %rsp
	popq	%rbx
	popq	%rdi
	popq	%rsi
	popq	%r12
	popq	%r13
.Ltmp1195:
	popq	%r14
	popq	%r15
	popq	%rbp
	retq
.Ltmp1196:
	.seh_handlerdata
	.section	.text,"xr",one_only,_ZN10concurrent4main17h5995471d045fea41E
	.seh_endproc
	.def	"?dtor$172@?0?_ZN10concurrent4main17h5995471d045fea41E@4HA";
	.scl	3;
	.type	32;
	.endef
	.p2align	4, 0x90
"?dtor$172@?0?_ZN10concurrent4main17h5995471d045fea41E@4HA":
.seh_proc "?dtor$172@?0?_ZN10concurrent4main17h5995471d045fea41E@4HA"
.LBB42_172:
	movq	%rdx, 16(%rsp)
	pushq	%rbp
	.seh_pushreg %rbp
	pushq	%r15
	.seh_pushreg %r15
	pushq	%r14
	.seh_pushreg %r14
	pushq	%r13
	.seh_pushreg %r13
	pushq	%r12
	.seh_pushreg %r12
	pushq	%rsi
	.seh_pushreg %rsi
	pushq	%rdi
	.seh_pushreg %rdi
	pushq	%rbx
	.seh_pushreg %rbx
	subq	$56, %rsp
	.seh_stackalloc 56
	leaq	128(%rdx), %rbp
	movaps	%xmm6, 32(%rsp)
	.seh_savexmm %xmm6, 32
	.seh_endprologue
	movb	$1, 167(%rbp)
	leaq	-8(%rbp), %rcx
.Ltmp1197:
	.cv_loc	579 33 1076 0
	callq	_ZN4core3ptr91drop_in_place$LT$alloc..boxed..Box$LT$dyn$u20$core..any..Any$u2b$core..marker..Send$GT$$GT$17h012b2babdf7ba6acE
	movb	$1, 167(%rbp)
	movaps	32(%rsp), %xmm6
	addq	$56, %rsp
	popq	%rbx
	popq	%rdi
.Ltmp1198:
	popq	%rsi
	popq	%r12
	popq	%r13
.Ltmp1199:
	popq	%r14
	popq	%r15
	popq	%rbp
	retq
.Ltmp1200:
	.seh_handlerdata
	.section	.text,"xr",one_only,_ZN10concurrent4main17h5995471d045fea41E
	.seh_endproc
	.def	"?dtor$173@?0?_ZN10concurrent4main17h5995471d045fea41E@4HA";
	.scl	3;
	.type	32;
	.endef
	.p2align	4, 0x90
"?dtor$173@?0?_ZN10concurrent4main17h5995471d045fea41E@4HA":
.seh_proc "?dtor$173@?0?_ZN10concurrent4main17h5995471d045fea41E@4HA"
.LBB42_173:
	movq	%rdx, 16(%rsp)
	pushq	%rbp
	.seh_pushreg %rbp
	pushq	%r15
	.seh_pushreg %r15
	pushq	%r14
	.seh_pushreg %r14
	pushq	%r13
	.seh_pushreg %r13
	pushq	%r12
	.seh_pushreg %r12
	pushq	%rsi
	.seh_pushreg %rsi
	pushq	%rdi
	.seh_pushreg %rdi
	pushq	%rbx
	.seh_pushreg %rbx
	subq	$56, %rsp
	.seh_stackalloc 56
	leaq	128(%rdx), %rbp
	movaps	%xmm6, 32(%rsp)
	.seh_savexmm %xmm6, 32
	.seh_endprologue
	movb	$0, 167(%rbp)
	leaq	-8(%rbp), %rcx
.Ltmp1201:
	.cv_loc	450 33 1076 0
	callq	_ZN4core3ptr91drop_in_place$LT$alloc..boxed..Box$LT$dyn$u20$core..any..Any$u2b$core..marker..Send$GT$$GT$17h012b2babdf7ba6acE
	movb	$0, 167(%rbp)
	movaps	32(%rsp), %xmm6
	addq	$56, %rsp
	popq	%rbx
	popq	%rdi
.Ltmp1202:
	popq	%rsi
	popq	%r12
	popq	%r13
.Ltmp1203:
	popq	%r14
	popq	%r15
	popq	%rbp
	retq
.Ltmp1204:
.Lfunc_end42:
	.seh_handlerdata
	.section	.text,"xr",one_only,_ZN10concurrent4main17h5995471d045fea41E
	.seh_endproc
	.section	.xdata,"dr",associative,_ZN10concurrent4main17h5995471d045fea41E
	.p2align	2, 0x0
$cppxdata$_ZN10concurrent4main17h5995471d045fea41E:
	.long	429065506
	.long	32
	.long	($stateUnwindMap$_ZN10concurrent4main17h5995471d045fea41E)@IMGREL
	.long	0
	.long	0
	.long	35
	.long	($ip2state$_ZN10concurrent4main17h5995471d045fea41E)@IMGREL
	.long	296
	.long	0
	.long	1
$stateUnwindMap$_ZN10concurrent4main17h5995471d045fea41E:
	.long	-1
	.long	"?dtor$66@?0?_ZN10concurrent4main17h5995471d045fea41E@4HA"@IMGREL
	.long	0
	.long	"?dtor$63@?0?_ZN10concurrent4main17h5995471d045fea41E@4HA"@IMGREL
	.long	1
	.long	"?dtor$27@?0?_ZN10concurrent4main17h5995471d045fea41E@4HA"@IMGREL
	.long	2
	.long	"?dtor$61@?0?_ZN10concurrent4main17h5995471d045fea41E@4HA"@IMGREL
	.long	3
	.long	"?dtor$57@?0?_ZN10concurrent4main17h5995471d045fea41E@4HA"@IMGREL
	.long	4
	.long	"?dtor$55@?0?_ZN10concurrent4main17h5995471d045fea41E@4HA"@IMGREL
	.long	5
	.long	"?dtor$51@?0?_ZN10concurrent4main17h5995471d045fea41E@4HA"@IMGREL
	.long	6
	.long	"?dtor$43@?0?_ZN10concurrent4main17h5995471d045fea41E@4HA"@IMGREL
	.long	3
	.long	"?dtor$30@?0?_ZN10concurrent4main17h5995471d045fea41E@4HA"@IMGREL
	.long	1
	.long	"?dtor$24@?0?_ZN10concurrent4main17h5995471d045fea41E@4HA"@IMGREL
	.long	1
	.long	"?dtor$21@?0?_ZN10concurrent4main17h5995471d045fea41E@4HA"@IMGREL
	.long	0
	.long	"?dtor$170@?0?_ZN10concurrent4main17h5995471d045fea41E@4HA"@IMGREL
	.long	-1
	.long	"?dtor$69@?0?_ZN10concurrent4main17h5995471d045fea41E@4HA"@IMGREL
	.long	-1
	.long	"?dtor$167@?0?_ZN10concurrent4main17h5995471d045fea41E@4HA"@IMGREL
	.long	13
	.long	"?dtor$164@?0?_ZN10concurrent4main17h5995471d045fea41E@4HA"@IMGREL
	.long	14
	.long	"?dtor$173@?0?_ZN10concurrent4main17h5995471d045fea41E@4HA"@IMGREL
	.long	14
	.long	"?dtor$151@?0?_ZN10concurrent4main17h5995471d045fea41E@4HA"@IMGREL
	.long	14
	.long	"?dtor$172@?0?_ZN10concurrent4main17h5995471d045fea41E@4HA"@IMGREL
	.long	14
	.long	"?dtor$138@?0?_ZN10concurrent4main17h5995471d045fea41E@4HA"@IMGREL
	.long	13
	.long	"?dtor$137@?0?_ZN10concurrent4main17h5995471d045fea41E@4HA"@IMGREL
	.long	13
	.long	"?dtor$134@?0?_ZN10concurrent4main17h5995471d045fea41E@4HA"@IMGREL
	.long	20
	.long	"?dtor$131@?0?_ZN10concurrent4main17h5995471d045fea41E@4HA"@IMGREL
	.long	21
	.long	"?dtor$97@?0?_ZN10concurrent4main17h5995471d045fea41E@4HA"@IMGREL
	.long	22
	.long	"?dtor$129@?0?_ZN10concurrent4main17h5995471d045fea41E@4HA"@IMGREL
	.long	23
	.long	"?dtor$125@?0?_ZN10concurrent4main17h5995471d045fea41E@4HA"@IMGREL
	.long	24
	.long	"?dtor$123@?0?_ZN10concurrent4main17h5995471d045fea41E@4HA"@IMGREL
	.long	25
	.long	"?dtor$119@?0?_ZN10concurrent4main17h5995471d045fea41E@4HA"@IMGREL
	.long	26
	.long	"?dtor$111@?0?_ZN10concurrent4main17h5995471d045fea41E@4HA"@IMGREL
	.long	23
	.long	"?dtor$98@?0?_ZN10concurrent4main17h5995471d045fea41E@4HA"@IMGREL
	.long	21
	.long	"?dtor$95@?0?_ZN10concurrent4main17h5995471d045fea41E@4HA"@IMGREL
	.long	21
	.long	"?dtor$92@?0?_ZN10concurrent4main17h5995471d045fea41E@4HA"@IMGREL
	.long	20
	.long	"?dtor$171@?0?_ZN10concurrent4main17h5995471d045fea41E@4HA"@IMGREL
$ip2state$_ZN10concurrent4main17h5995471d045fea41E:
	.long	.Lfunc_begin42@IMGREL
	.long	-1
	.long	.Ltmp773@IMGREL+1
	.long	1
	.long	.Ltmp775@IMGREL+1
	.long	10
	.long	.Ltmp781@IMGREL+1
	.long	1
	.long	.Ltmp783@IMGREL+1
	.long	4
	.long	.Ltmp785@IMGREL+1
	.long	5
	.long	.Ltmp787@IMGREL+1
	.long	6
	.long	.Ltmp795@IMGREL+1
	.long	13
	.long	.Ltmp799@IMGREL+1
	.long	21
	.long	.Ltmp801@IMGREL+1
	.long	30
	.long	.Ltmp807@IMGREL+1
	.long	21
	.long	.Ltmp809@IMGREL+1
	.long	24
	.long	.Ltmp811@IMGREL+1
	.long	25
	.long	.Ltmp813@IMGREL+1
	.long	26
	.long	.Ltmp821@IMGREL+1
	.long	18
	.long	.Ltmp825@IMGREL+1
	.long	14
	.long	.Ltmp829@IMGREL+1
	.long	16
	.long	.Ltmp833@IMGREL+1
	.long	14
	.long	.Ltmp803@IMGREL+1
	.long	29
	.long	.Ltmp823@IMGREL+1
	.long	18
	.long	.Ltmp831@IMGREL+1
	.long	16
	.long	.Ltmp847@IMGREL+1
	.long	8
	.long	.Ltmp845@IMGREL+1
	.long	7
	.long	.Ltmp791@IMGREL+1
	.long	11
	.long	.Ltmp793@IMGREL+1
	.long	12
	.long	.Ltmp843@IMGREL+1
	.long	28
	.long	.Ltmp841@IMGREL+1
	.long	27
	.long	.Ltmp817@IMGREL+1
	.long	31
	.long	.Ltmp819@IMGREL+1
	.long	19
	.long	.Ltmp839@IMGREL+1
	.long	18
	.long	.Ltmp827@IMGREL+1
	.long	17
	.long	.Ltmp837@IMGREL+1
	.long	16
	.long	.Ltmp835@IMGREL+1
	.long	15
	.long	.Ltmp777@IMGREL+1
	.long	9
	.long	.Ltmp778@IMGREL+1
	.long	-1
	.section	.text,"xr",one_only,_ZN10concurrent4main17h5995471d045fea41E

	.def	main;
	.scl	2;
	.type	32;
	.endef
	.section	.text,"xr",one_only,main
	.globl	main
	.p2align	4, 0x90
main:
.Lfunc_begin43:
.seh_proc main
	subq	$56, %rsp
	.seh_stackalloc 56
	.seh_endprologue
	movq	%rdx, %r9
	movslq	%ecx, %r8
	leaq	_ZN10concurrent4main17h5995471d045fea41E(%rip), %rax
	movq	%rax, 48(%rsp)
	movb	$0, 32(%rsp)
	leaq	__unnamed_3(%rip), %rdx
	leaq	48(%rsp), %rcx
	callq	_ZN3std2rt19lang_start_internal17h0386057d0589e4c8E
	nop
	addq	$56, %rsp
	retq
.Lfunc_end43:
	.seh_endproc

	.section	.rdata,"dr",one_only,__unnamed_26
__unnamed_26:
	.ascii	"failed to write whole buffer"

	.section	.rdata,"dr",one_only,__unnamed_9
	.p2align	3, 0x0
__unnamed_9:
	.quad	__unnamed_26
	.ascii	"\034\000\000\000\000\000\000\000\027"
	.zero	7

	.section	.rdata,"dr",one_only,__unnamed_27
__unnamed_27:
	.ascii	"/rustc/5680fa18feaa87f3ff04063800aec256c3d4b4be\\library\\std\\src\\io\\mod.rs"

	.section	.rdata,"dr",one_only,__unnamed_10
	.p2align	3, 0x0
__unnamed_10:
	.quad	__unnamed_27
	.asciz	"I\000\000\000\000\000\000\000-\006\000\000!\000\000"

	.section	.rdata,"dr",one_only,__unnamed_28
__unnamed_28:
	.ascii	"formatter error"

	.section	.rdata,"dr",one_only,__unnamed_2
	.p2align	3, 0x0
__unnamed_2:
	.quad	__unnamed_28
	.ascii	"\017\000\000\000\000\000\000\000("
	.zero	7

	.section	.rdata,"dr",one_only,__unnamed_1
	.p2align	3, 0x0
__unnamed_1:
	.quad	_ZN4core3ptr95drop_in_place$LT$std..io..Write..write_fmt..Adapter$LT$std..sys..windows..stdio..Stderr$GT$$GT$17hd2dd8c8ab9fff3f7E
	.asciz	"\020\000\000\000\000\000\000\000\b\000\000\000\000\000\000"
	.quad	_ZN80_$LT$std..io..Write..write_fmt..Adapter$LT$T$GT$$u20$as$u20$core..fmt..Write$GT$9write_str17hbbc4030ac5d6d221E
	.quad	_ZN4core3fmt5Write10write_char17h60e4a05055518aa7E
	.quad	_ZN4core3fmt5Write9write_fmt17hb0337131e1841832E

	.section	.rdata,"dr",one_only,__unnamed_3
	.p2align	3, 0x0
__unnamed_3:
	.quad	_ZN4core3ptr107drop_in_place$LT$$RF$mut$u20$std..io..Write..write_fmt..Adapter$LT$std..sys..windows..stdio..Stderr$GT$$GT$17h75a6852121bdb97aE
	.asciz	"\b\000\000\000\000\000\000\000\b\000\000\000\000\000\000"
	.quad	_ZN4core3ops8function6FnOnce40call_once$u7b$$u7b$vtable.shim$u7d$$u7d$17hcd7722ecf0543137E
	.quad	_ZN3std2rt10lang_start28_$u7b$$u7b$closure$u7d$$u7d$17hfbb0f6deb8d70932E
	.quad	_ZN3std2rt10lang_start28_$u7b$$u7b$closure$u7d$$u7d$17hfbb0f6deb8d70932E

	.section	.rdata,"dr",one_only,__unnamed_16
__unnamed_16:
	.ascii	"called `Option::unwrap()` on a `None` value"

	.section	.rdata,"dr",one_only,__unnamed_29
__unnamed_29:
	.ascii	"/rustc/5680fa18feaa87f3ff04063800aec256c3d4b4be\\library\\std\\src\\thread\\mod.rs"

	.section	.rdata,"dr",one_only,__unnamed_17
	.p2align	3, 0x0
__unnamed_17:
	.quad	__unnamed_29
	.asciz	"M\000\000\000\000\000\000\000\237\005\000\000(\000\000"

	.section	.rdata,"dr",one_only,__unnamed_21
	.p2align	3, 0x0
__unnamed_21:
	.quad	__unnamed_29
	.asciz	"M\000\000\000\000\000\000\000\237\005\000\000I\000\000"

	.section	.rdata,"dr",one_only,__unnamed_19
__unnamed_19:
	.ascii	"failed to spawn thread"

	.section	.rdata,"dr",one_only,__unnamed_18
	.p2align	3, 0x0
__unnamed_18:
	.quad	__unnamed_29
	.asciz	"M\000\000\000\000\000\000\000\256\002\000\000\035\000\000"

	.section	.rdata,"dr",one_only,__unnamed_14
__unnamed_14:
	.ascii	"thread name may not contain interior null bytes"

	.section	.rdata,"dr",one_only,__unnamed_13
	.p2align	3, 0x0
__unnamed_13:
	.quad	__unnamed_29
	.asciz	"M\000\000\000\000\000\000\000\334\001\000\000 \000\000"

	.section	.rdata,"dr",one_only,__unnamed_11
	.p2align	3, 0x0
__unnamed_11:
	.quad	_ZN4core3ptr156drop_in_place$LT$std..thread..Builder..spawn_unchecked_$LT$concurrent..consumer..$u7b$$u7b$closure$u7d$$u7d$$C$$LP$$RP$$GT$..$u7b$$u7b$closure$u7d$$u7d$$GT$17h4c86d115223721efE
	.asciz	"\030\000\000\000\000\000\000\000\b\000\000\000\000\000\000"
	.quad	_ZN4core3ops8function6FnOnce40call_once$u7b$$u7b$vtable.shim$u7d$$u7d$17h143bdd5b2edae680E

	.section	.rdata,"dr",one_only,__unnamed_12
	.p2align	3, 0x0
__unnamed_12:
	.quad	_ZN4core3ptr156drop_in_place$LT$std..thread..Builder..spawn_unchecked_$LT$concurrent..consumer..$u7b$$u7b$closure$u7d$$u7d$$C$$LP$$RP$$GT$..$u7b$$u7b$closure$u7d$$u7d$$GT$17h4c86d115223721efE
	.asciz	"\030\000\000\000\000\000\000\000\b\000\000\000\000\000\000"
	.quad	_ZN4core3ops8function6FnOnce40call_once$u7b$$u7b$vtable.shim$u7d$$u7d$17h6d6be17418e5d1d8E

	.section	.data,"dw",discard,__rust_panic_type_info
	.globl	__rust_panic_type_info
	.p2align	4, 0x0
__rust_panic_type_info:
	.quad	"??_7type_info@@6B@"
	.quad	0
	.asciz	"rust_panic"
	.zero	5

	.section	.rdata,"dr",one_only,__unnamed_4
	.p2align	3, 0x0
__unnamed_4:
	.quad	_ZN4core3ptr107drop_in_place$LT$$RF$mut$u20$std..io..Write..write_fmt..Adapter$LT$std..sys..windows..stdio..Stderr$GT$$GT$17h75a6852121bdb97aE
	.asciz	"\b\000\000\000\000\000\000\000\b\000\000\000\000\000\000"
	.quad	_ZN50_$LT$$RF$mut$u20$W$u20$as$u20$core..fmt..Write$GT$9write_str17h787771c1b092a1e2E
	.quad	_ZN50_$LT$$RF$mut$u20$W$u20$as$u20$core..fmt..Write$GT$10write_char17h7880ec467e354b79E
	.quad	_ZN50_$LT$$RF$mut$u20$W$u20$as$u20$core..fmt..Write$GT$9write_fmt17h631090fd3ce2eda6E

	.section	.rdata,"dr",one_only,__unnamed_15
	.p2align	3, 0x0
__unnamed_15:
	.quad	_ZN4core3ptr48drop_in_place$LT$alloc..ffi..c_str..NulError$GT$17hef9c01c00a16a3dbE
	.asciz	" \000\000\000\000\000\000\000\b\000\000\000\000\000\000"
	.quad	_ZN64_$LT$alloc..ffi..c_str..NulError$u20$as$u20$core..fmt..Debug$GT$3fmt17h2ed128278e1550e6E

	.section	.rdata,"dr",one_only,__unnamed_20
	.p2align	3, 0x0
__unnamed_20:
	.quad	_ZN4core3ptr42drop_in_place$LT$std..io..error..Error$GT$17hea0d4fdae7d1d80dE
	.asciz	"\b\000\000\000\000\000\000\000\b\000\000\000\000\000\000"
	.quad	_ZN58_$LT$std..io..error..Error$u20$as$u20$core..fmt..Debug$GT$3fmt17ha2b9e55c5ad4e37bE

	.section	.rdata,"dr",one_only,__unnamed_23
__unnamed_23:
	.ascii	"called `Result::unwrap()` on an `Err` value"

	.section	.rdata,"dr",one_only,__unnamed_24
	.p2align	3, 0x0
__unnamed_24:
	.quad	_ZN4core3ptr91drop_in_place$LT$alloc..boxed..Box$LT$dyn$u20$core..any..Any$u2b$core..marker..Send$GT$$GT$17h012b2babdf7ba6acE
	.asciz	"\020\000\000\000\000\000\000\000\b\000\000\000\000\000\000"
	.quad	_ZN67_$LT$alloc..boxed..Box$LT$T$C$A$GT$$u20$as$u20$core..fmt..Debug$GT$3fmt17h50a02306976cc34aE

	.section	.rdata,"dr",one_only,__unnamed_8
	.p2align	3, 0x0
__unnamed_8:
	.quad	_ZN4core3ptr107drop_in_place$LT$$RF$mut$u20$std..io..Write..write_fmt..Adapter$LT$std..sys..windows..stdio..Stderr$GT$$GT$17h75a6852121bdb97aE
	.asciz	"\b\000\000\000\000\000\000\000\b\000\000\000\000\000\000"
	.quad	_ZN42_$LT$$RF$T$u20$as$u20$core..fmt..Debug$GT$3fmt17h06135e02c82c3eb7E

	.section	.rdata,"dr",one_only,__unnamed_30
__unnamed_30:
	.ascii	"fatal runtime error: thread result panicked on drop\n"

	.section	.rdata,"dr",one_only,__unnamed_5
	.p2align	3, 0x0
__unnamed_5:
	.quad	__unnamed_30
	.asciz	"4\000\000\000\000\000\000"

	.section	.bss,"bw",one_only,_ZN10concurrent4DATA17h12318adf91d9460fE.0
	.p2align	3, 0x0
_ZN10concurrent4DATA17h12318adf91d9460fE.0:
	.byte	0

	.section	.bss,"bw",one_only,_ZN10concurrent5READY17ha9d70e9a654afec8E.0
_ZN10concurrent5READY17ha9d70e9a654afec8E.0:
	.byte	0

	.section	.rdata,"dr",one_only,__unnamed_6
	.p2align	3, 0x0
__unnamed_6:
	.asciz	"d\000\000\000\000\000\000"

	.section	.rdata,"dr",one_only,__unnamed_31
__unnamed_31:
	.ascii	"src\\main.rs"

	.section	.rdata,"dr",one_only,__unnamed_7
	.p2align	3, 0x0
__unnamed_7:
	.quad	__unnamed_31
	.asciz	"\013\000\000\000\000\000\000\000'\000\000\000\t\000\000"

	.section	.rdata,"dr",one_only,__unnamed_22
	.p2align	3, 0x0
__unnamed_22:
	.quad	__unnamed_31
	.asciz	"\013\000\000\000\000\000\000\0003\000\000\000\033\000\000"

	.section	.rdata,"dr",one_only,__unnamed_25
	.p2align	3, 0x0
__unnamed_25:
	.quad	__unnamed_31
	.asciz	"\013\000\000\000\000\000\000\0004\000\000\000\033\000\000"
